

Microchip Technology PIC18 LITE Macro Assembler V1.34 build -361300703 
                                                                                               Mon Feb 22 10:40:04 2016

Microchip Technology Omniscient Code Generator (Lite mode) build 201502162209
     1                           	processor	18F67K22
     2                           	fnconf	rparam,??,?,0
     3                           	opt	pw 120
     4                           	opt	lm
     5                           	psect	smallconst,global,reloc=2,class=SMALLCONST,delta=1
     6                           	psect	cinit,global,reloc=2,class=CODE,delta=1
     7                           	psect	bssCOMRAM,global,class=COMRAM,space=1,delta=1
     8                           	psect	cstackBANK0,global,class=BANK0,space=1,delta=1
     9                           	psect	cstackCOMRAM,global,class=COMRAM,space=1,delta=1
    10                           	psect	text0,global,reloc=2,class=CODE,delta=1
    11                           	psect	text1,global,reloc=2,class=CODE,delta=1
    12                           	psect	text2,global,reloc=2,class=CODE,delta=1
    13                           	psect	text3,global,reloc=2,class=CODE,delta=1
    14                           	psect	text4,global,reloc=2,class=CODE,delta=1
    15                           	psect	text5,global,reloc=2,class=CODE,delta=1
    16                           	psect	text6,global,reloc=2,class=CODE,delta=1
    17                           	psect	text7,global,reloc=2,class=CODE,delta=1
    18                           	psect	text8,global,reloc=2,class=CODE,delta=1
    19                           	psect	text9,global,reloc=2,class=CODE,delta=1
    20                           	psect	text10,global,reloc=2,class=CODE,delta=1
    21                           	psect	text11,global,reloc=2,class=CODE,delta=1
    22                           	psect	intcode,global,reloc=2,class=CODE,delta=1
    23                           	psect	text13,global,reloc=2,class=CODE,delta=1
    24                           	psect	text14,global,reloc=2,class=CODE,delta=1
    25                           	psect	text15,global,reloc=2,class=CODE,delta=1
    26                           	psect	text16,global,reloc=2,class=CODE,delta=1
    27                           	psect	text17,global,reloc=2,class=CODE,delta=1
    28                           	psect	text18,global,reloc=2,class=CODE,delta=1
    29                           	psect	text19,global,reloc=2,class=CODE,delta=1
    30                           	psect	text20,global,reloc=2,class=CODE,delta=1
    31                           	psect	text21,global,reloc=2,class=CODE,delta=1
    32                           	psect	text22,global,reloc=2,class=CODE,delta=1
    33                           	psect	text23,global,reloc=2,class=CODE,delta=1
    34                           	psect	text24,global,reloc=2,class=CODE,delta=1
    35                           	psect	text25,global,reloc=2,class=CODE,delta=1
    36                           	psect	text26,global,reloc=2,class=CODE,delta=1
    37                           	psect	intsave_regs,global,class=BIGRAM,space=1,delta=1
    38                           	psect	rparam,global,class=COMRAM,space=1,delta=1
    39  0000                     
    40                           	psect	smallconst
    41  001000                     __psmallconst:
    42                           	opt stack 0
    43  001000  00                 	db	0
    44  001001                     _LED_Number:
    45                           	opt stack 0
    46  001001  3F                 	db	63
    47  001002  06                 	db	6
    48  001003  5B                 	db	91
    49  001004  4F                 	db	79
    50  001005  66                 	db	102
    51  001006  6D                 	db	109
    52  001007  7D                 	db	125
    53  001008  07                 	db	7
    54  001009  7F                 	db	127
    55  00100A  6F                 	db	111
    56  00100B                     __end_of_LED_Number:
    57                           	opt stack 0
    58  0000                     _ANSEL10	set	31010
    59  0000                     _ANSEL4	set	31020
    60  0000                     _ANSEL7	set	31023
    61  0000                     _ANSEL8	set	31008
    62  0000                     _ANSEL9	set	31009
    63  0000                     _CCP7OD	set	31044
    64  0000                     _EEADR	set	3938
    65  0000                     _EEADRH	set	3939
    66  0000                     _EECON1bits	set	3967
    67  0000                     _EECON2	set	3966
    68  0000                     _EEDATA	set	3937
    69  0000                     _INTCONbits	set	4082
    70  0000                     _PORTC	set	3970
    71  0000                     _TMR0H	set	4055
    72  0000                     _TMR0L	set	4054
    73  0000                     _TRISAbits	set	3986
    74  0000                     _TRISC	set	3988
    75  0000                     _TRISDbits	set	3989
    76  0000                     _TRISEbits	set	3990
    77  0000                     _TRISFbits	set	3991
    78  0000                     _WDTCON	set	4049
    79  0000                     _GIE	set	32663
    80  0000                     _IPEN	set	32391
    81  0000                     _PSA	set	32427
    82  0000                     _RA4	set	31748
    83  0000                     _RA5	set	31749
    84  0000                     _RD2	set	31770
    85  0000                     _RD3	set	31771
    86  0000                     _RE5	set	31781
    87  0000                     _RE6	set	31782
    88  0000                     _RF2	set	31786
    89  0000                     _RF3	set	31787
    90  0000                     _RF4	set	31788
    91  0000                     _RF5	set	31789
    92  0000                     _T08BIT	set	32430
    93  0000                     _T0CS	set	32429
    94  0000                     _T0PS0	set	32424
    95  0000                     _T0PS1	set	32425
    96  0000                     _T0PS2	set	32426
    97  0000                     _T0SE	set	32428
    98  0000                     _TMR0IE	set	32661
    99  0000                     _TMR0IF	set	32658
   100  0000                     _TMR0ON	set	32431
   101                           
   102                           ; #config settings
   103  00100B  00                 	db	0	; dummy byte at the end
   104  0000                     
   105                           	psect	cinit
   106  001730                     __pcinit:
   107                           	opt stack 0
   108  001730                     start_initialization:
   109                           	opt stack 0
   110  001730                     __initialization:
   111                           	opt stack 0
   112                           
   113                           ; Clear objects allocated to COMRAM (30 bytes)
   114  001730  EE00  F026         	lfsr	0,__pbssCOMRAM
   115  001734  0E1E               	movlw	30
   116  001736                     clear_0:
   117  001736  6AEE               	clrf	postinc0,c
   118  001738  06E8               	decf	wreg,f,c
   119  00173A  E1FD               	bnz	clear_0
   120  00173C                     end_of_initialization:
   121                           	opt stack 0
   122  00173C                     __end_of__initialization:
   123                           	opt stack 0
   124  00173C  0E00               	movlw	low (__Lsmallconst shr (0+16))
   125  00173E  6EF8               	movwf	tblptru,c
   126  001740  0E10               	movlw	high __Lsmallconst
   127  001742  6EF7               	movwf	tblptrh,c
   128  001744  0100               	movlb	0
   129  001746  EFD7  F00B         	goto	_main	;jump to C main() function
   130                           tblptru	equ	0xFF8
   131                           tblptrh	equ	0xFF7
   132                           postinc0	equ	0xFEE
   133                           wreg	equ	0xFE8
   134                           
   135                           	psect	bssCOMRAM
   136  000026                     __pbssCOMRAM:
   137                           	opt stack 0
   138  000026                     _Timer_Cyc:
   139                           	opt stack 0
   140  000026                     	ds	4
   141  00002A                     _IR2184_Timer:
   142                           	opt stack 0
   143  00002A                     	ds	2
   144  00002C                     Manage_Message@F8484:
   145                           	opt stack 0
   146  00002C                     	ds	1
   147  00002D                     Nixie_ShowNum@_t:
   148                           	opt stack 0
   149  00002D                     	ds	1
   150  00002E                     Sys_Init@F8489:
   151                           	opt stack 0
   152  00002E                     	ds	1
   153  00002F                     _IR2184_Num:
   154                           	opt stack 0
   155  00002F                     	ds	1
   156  000030                     _Nix_Flash:
   157                           	opt stack 0
   158  000030                     	ds	1
   159  000031                     _Watch_Flag:
   160                           	opt stack 0
   161  000031                     	ds	1
   162  000032                     _Local_Key_FSM:
   163                           	opt stack 0
   164  000032                     	ds	9
   165  00003B                     _Local_Key_User:
   166                           	opt stack 0
   167  00003B                     	ds	9
   168                           tblptru	equ	0xFF8
   169                           tblptrh	equ	0xFF7
   170                           postinc0	equ	0xFEE
   171                           wreg	equ	0xFE8
   172                           
   173                           	psect	cstackBANK0
   174  000060                     __pcstackBANK0:
   175                           	opt stack 0
   176  000060                     ??_EEPROM_Reads:
   177                           
   178                           ; 0 bytes @ 0x0
   179  000060                     	ds	2
   180  000062                     Sys_Init@_databuff:
   181                           	opt stack 0
   182                           
   183                           ; 1 bytes @ 0x2
   184  000062                     	ds	1
   185                           tblptru	equ	0xFF8
   186                           tblptrh	equ	0xFF7
   187                           postinc0	equ	0xFEE
   188                           wreg	equ	0xFE8
   189                           
   190                           	psect	cstackCOMRAM
   191  000001                     __pcstackCOMRAM:
   192                           	opt stack 0
   193  000001                     ??_Key_FSM_Read:
   194  000001                     ?___awdiv:
   195                           	opt stack 0
   196  000001                     ?___awmod:
   197                           	opt stack 0
   198  000001                     ?___lwmod:
   199                           	opt stack 0
   200  000001                     ?___llmod:
   201                           	opt stack 0
   202  000001                     Key_FSM_Reset@t:
   203                           	opt stack 0
   204  000001                     Write_b_eep@badd:
   205                           	opt stack 0
   206  000001                     ___awdiv@dividend:
   207                           	opt stack 0
   208  000001                     ___awmod@dividend:
   209                           	opt stack 0
   210  000001                     ___lwmod@dividend:
   211                           	opt stack 0
   212  000001                     i2SetTimer0@_tmr:
   213                           	opt stack 0
   214  000001                     ___llmod@dividend:
   215                           	opt stack 0
   216                           
   217                           ; 4 bytes @ 0x0
   218  000001                     	ds	2
   219  000003                     ??i2_SetTimer0:
   220  000003                     Write_b_eep@bdat:
   221                           	opt stack 0
   222  000003                     ___awdiv@divisor:
   223                           	opt stack 0
   224  000003                     ___awmod@divisor:
   225                           	opt stack 0
   226  000003                     ___lwmod@divisor:
   227                           	opt stack 0
   228                           
   229                           ; 2 bytes @ 0x2
   230  000003                     	ds	1
   231  000004                     Write_b_eep@GIE_BIT_VAL:
   232                           	opt stack 0
   233                           
   234                           ; 1 bytes @ 0x3
   235  000004                     	ds	1
   236  000005                     Key_FSM_Read@key_num_mate:
   237                           	opt stack 0
   238  000005                     ___awdiv@counter:
   239                           	opt stack 0
   240  000005                     ___awmod@counter:
   241                           	opt stack 0
   242  000005                     ___lwmod@counter:
   243                           	opt stack 0
   244  000005                     EEPROM_Writers@Addr:
   245                           	opt stack 0
   246  000005                     ___llmod@divisor:
   247                           	opt stack 0
   248                           
   249                           ; 4 bytes @ 0x4
   250  000005                     	ds	1
   251  000006                     Key_FSM_Read@key_num:
   252                           	opt stack 0
   253  000006                     ___awdiv@sign:
   254                           	opt stack 0
   255  000006                     ___awmod@sign:
   256                           	opt stack 0
   257                           
   258                           ; 1 bytes @ 0x5
   259  000006                     	ds	1
   260  000007                     EEPROM_Writers@DateBuff:
   261                           	opt stack 0
   262  000007                     ___awdiv@quotient:
   263                           	opt stack 0
   264                           
   265                           ; 2 bytes @ 0x6
   266  000007                     	ds	2
   267  000009                     Nixie_ShowNum@_num:
   268                           	opt stack 0
   269  000009                     ___llmod@counter:
   270                           	opt stack 0
   271  000009                     EEPROM_Writers@length:
   272                           	opt stack 0
   273                           
   274                           ; 2 bytes @ 0x8
   275  000009                     	ds	1
   276  00000A                     
   277                           ; 0 bytes @ 0x9
   278  00000A                     	ds	1
   279  00000B                     ??_EEPROM_Writers:
   280                           
   281                           ; 0 bytes @ 0xA
   282  00000B                     	ds	2
   283  00000D                     EEPROM_Writers@i:
   284                           	opt stack 0
   285                           
   286                           ; 1 bytes @ 0xC
   287  00000D                     	ds	1
   288  00000E                     Manage_Message@_databuff:
   289                           	opt stack 0
   290                           
   291                           ; 1 bytes @ 0xD
   292  00000E                     	ds	1
   293  00000F                     ??_Sys_Cyc:
   294                           
   295                           ; 0 bytes @ 0xE
   296  00000F                     	ds	14
   297  00001D                     delay1ms@a:
   298                           	opt stack 0
   299  00001D                     SetTimer0@_tmr:
   300                           	opt stack 0
   301  00001D                     Read_b_eep@badd:
   302                           	opt stack 0
   303                           
   304                           ; 2 bytes @ 0x1C
   305  00001D                     	ds	1
   306  00001E                     delay1ms@b:
   307                           	opt stack 0
   308                           
   309                           ; 1 bytes @ 0x1D
   310  00001E                     	ds	1
   311  00001F                     ??_SetTimer0:
   312  00001F                     delay1ms@c:
   313                           	opt stack 0
   314  00001F                     EEPROM_Reads@Addr:
   315                           	opt stack 0
   316                           
   317                           ; 2 bytes @ 0x1E
   318  00001F                     	ds	1
   319  000020                     delay_ms@_ms:
   320                           	opt stack 0
   321                           
   322                           ; 2 bytes @ 0x1F
   323  000020                     	ds	1
   324  000021                     EEPROM_Reads@DateBuff:
   325                           	opt stack 0
   326                           
   327                           ; 2 bytes @ 0x20
   328  000021                     	ds	1
   329  000022                     ??_Run:
   330  000022                     
   331                           ; 0 bytes @ 0x21
   332  000022                     	ds	1
   333  000023                     EEPROM_Reads@length:
   334                           	opt stack 0
   335                           
   336                           ; 2 bytes @ 0x22
   337  000023                     	ds	2
   338  000025                     EEPROM_Reads@i:
   339                           	opt stack 0
   340                           
   341                           ; 1 bytes @ 0x24
   342  000025                     	ds	1
   343  000026                     tblptru	equ	0xFF8
   344                           tblptrh	equ	0xFF7
   345                           postinc0	equ	0xFEE
   346                           wreg	equ	0xFE8
   347                           
   348                           ; 0 bytes @ 0x25
   349 ;;
   350 ;;Main: autosize = 0, tempsize = 0, incstack = 0, save=0
   351 ;;
   352 ;; *************** function _main *****************
   353 ;; Defined at:
   354 ;;		line 40 in file "_01_USER/main.c"
   355 ;; Parameters:    Size  Location     Type
   356 ;;		None
   357 ;; Auto vars:     Size  Location     Type
   358 ;;		None
   359 ;; Return value:  Size  Location     Type
   360 ;;                  2    8[None  ] int 
   361 ;; Registers used:
   362 ;;		wreg, fsr2l, fsr2h, status,2, status,0, prodl, prodh, cstack
   363 ;; Tracked objects:
   364 ;;		On entry : 0/0
   365 ;;		On exit  : 0/0
   366 ;;		Unchanged: 0/0
   367 ;; Data sizes:     COMRAM   BANK0   BANK1   BANK2   BANK3   BANK4   BANK5   BANK6   BANK7   BANK8   BANK9  BANK10  BANK1
      +1  BANK12  BANK13  BANK14  BANK15
   368 ;;      Params:         0       0       0       0       0       0       0       0       0       0       0       0       
      +0       0       0       0       0
   369 ;;      Locals:         0       0       0       0       0       0       0       0       0       0       0       0       
      +0       0       0       0       0
   370 ;;      Temps:          0       0       0       0       0       0       0       0       0       0       0       0       
      +0       0       0       0       0
   371 ;;      Totals:         0       0       0       0       0       0       0       0       0       0       0       0       
      +0       0       0       0       0
   372 ;;Total ram usage:        0 bytes
   373 ;; Hardware stack levels required when called:    7
   374 ;; This function calls:
   375 ;;		_Run
   376 ;;		_Sys_Init
   377 ;; This function is called by:
   378 ;;		Startup code after reset
   379 ;; This function uses a non-reentrant model
   380 ;;
   381                           
   382                           	psect	text0
   383  0017AE                     __ptext0:
   384                           	opt stack 0
   385  0017AE                     _main:
   386                           	opt stack 24
   387                           
   388                           ;main.c: 43: Sys_Init();
   389                           
   390                           ;incstack = 0
   391  0017AE  ECF1  F00A         	call	_Sys_Init	;wreg free
   392  0017B2  D000               	goto	l1898
   393  0017B4                     l1898:
   394                           
   395                           ;main.c: 47: {
   396                           ;main.c: 48: Watch_Flag = 1;
   397  0017B4  0E01               	movlw	1
   398  0017B6  6E31               	movwf	_Watch_Flag,c
   399                           
   400                           ;main.c: 49: Run();
   401  0017B8  ECA3  F009         	call	_Run	;wreg free
   402  0017BC  D7FB               	goto	l1898
   403                           
   404                           ;main.c: 51: }
   405                           ;main.c: 53: return 0;
   406                           ;	Return value of _main is never used
   407  0017BE  EFAE  F000         	goto	start
   408  0017C2                     __end_of_main:
   409                           	opt stack 0
   410                           tblptru	equ	0xFF8
   411                           tblptrh	equ	0xFF7
   412                           postinc0	equ	0xFEE
   413                           wreg	equ	0xFE8
   414                           
   415 ;; *************** function _Sys_Init *****************
   416 ;; Defined at:
   417 ;;		line 141 in file "_01_USER/Run.c"
   418 ;; Parameters:    Size  Location     Type
   419 ;;		None
   420 ;; Auto vars:     Size  Location     Type
   421 ;;  _databuff       1    2[BANK0 ] unsigned char [1]
   422 ;; Return value:  Size  Location     Type
   423 ;;		None               void
   424 ;; Registers used:
   425 ;;		wreg, fsr2l, fsr2h, status,2, status,0, prodl, prodh, cstack
   426 ;; Tracked objects:
   427 ;;		On entry : 0/0
   428 ;;		On exit  : 0/0
   429 ;;		Unchanged: 0/0
   430 ;; Data sizes:     COMRAM   BANK0   BANK1   BANK2   BANK3   BANK4   BANK5   BANK6   BANK7   BANK8   BANK9  BANK10  BANK1
      +1  BANK12  BANK13  BANK14  BANK15
   431 ;;      Params:         0       0       0       0       0       0       0       0       0       0       0       0       
      +0       0       0       0       0
   432 ;;      Locals:         0       1       0       0       0       0       0       0       0       0       0       0       
      +0       0       0       0       0
   433 ;;      Temps:          0       0       0       0       0       0       0       0       0       0       0       0       
      +0       0       0       0       0
   434 ;;      Totals:         0       1       0       0       0       0       0       0       0       0       0       0       
      +0       0       0       0       0
   435 ;;Total ram usage:        1 bytes
   436 ;; Hardware stack levels used:    1
   437 ;; Hardware stack levels required when called:    6
   438 ;; This function calls:
   439 ;;		_EEPROM_Reads
   440 ;;		_IR2184_Init
   441 ;;		_Key_Init
   442 ;;		_Nixie_Init
   443 ;;		_Timer0_Init
   444 ;; This function is called by:
   445 ;;		_main
   446 ;; This function uses a non-reentrant model
   447 ;;
   448                           
   449                           	psect	text1
   450  0015E2                     __ptext1:
   451                           	opt stack 0
   452  0015E2                     _Sys_Init:
   453                           	opt stack 24
   454                           
   455                           ;Run.c: 144: unsigned char _databuff[1] = {0};
   456                           
   457                           ;incstack = 0
   458  0015E2  C02E  F062         	movff	Sys_Init@F8489,Sys_Init@_databuff
   459                           
   460                           ;Run.c: 147: WDTCON = 1;
   461  0015E6  0E01               	movlw	1
   462  0015E8  6ED1               	movwf	4049,c	;volatile
   463  0015EA  0004               	clrwdt		;# 
   464                           
   465                           ;Run.c: 149: Key_Init();
   466  0015EC  ECEB  F00B         	call	_Key_Init	;wreg free
   467                           
   468                           ;Run.c: 150: Timer0_Init();
   469  0015F0  EC75  F00B         	call	_Timer0_Init	;wreg free
   470                           
   471                           ;Run.c: 151: Nixie_Init();
   472  0015F4  ECE1  F00B         	call	_Nixie_Init	;wreg free
   473                           
   474                           ;Run.c: 152: IR2184_Init();
   475  0015F8  EC87  F00B         	call	_IR2184_Init	;wreg free
   476                           
   477                           ;Run.c: 153: Key_Init();
   478  0015FC  ECEB  F00B         	call	_Key_Init	;wreg free
   479                           
   480                           ;Run.c: 155: EEPROM_Reads(0x10,_databuff,1);
   481  001600  0E00               	movlw	0
   482  001602  6E20               	movwf	EEPROM_Reads@Addr+1,c
   483  001604  0E10               	movlw	16
   484  001606  6E1F               	movwf	EEPROM_Reads@Addr,c
   485  001608  0E62               	movlw	low Sys_Init@_databuff
   486  00160A  6E21               	movwf	EEPROM_Reads@DateBuff,c
   487  00160C  0E00               	movlw	high Sys_Init@_databuff
   488  00160E  6E22               	movwf	EEPROM_Reads@DateBuff+1,c
   489  001610  0E00               	movlw	0
   490  001612  6E24               	movwf	EEPROM_Reads@length+1,c
   491  001614  0E01               	movlw	1
   492  001616  6E23               	movwf	EEPROM_Reads@length,c
   493  001618  EC16  F00A         	call	_EEPROM_Reads	;wreg free
   494                           
   495                           ;Run.c: 156: IR2184_Num = _databuff[0];
   496  00161C  C062  F02F         	movff	Sys_Init@_databuff,_IR2184_Num
   497  001620  0012               	return		;funcret
   498  001622                     __end_of_Sys_Init:
   499                           	opt stack 0
   500                           tblptru	equ	0xFF8
   501                           tblptrh	equ	0xFF7
   502                           postinc0	equ	0xFEE
   503                           wreg	equ	0xFE8
   504                           
   505 ;; *************** function _Timer0_Init *****************
   506 ;; Defined at:
   507 ;;		line 43 in file "_01_USER/My_Timer.c"
   508 ;; Parameters:    Size  Location     Type
   509 ;;		None
   510 ;; Auto vars:     Size  Location     Type
   511 ;;		None
   512 ;; Return value:  Size  Location     Type
   513 ;;		None               void
   514 ;; Registers used:
   515 ;;		wreg, status,2, status,0, cstack
   516 ;; Tracked objects:
   517 ;;		On entry : 0/0
   518 ;;		On exit  : 0/0
   519 ;;		Unchanged: 0/0
   520 ;; Data sizes:     COMRAM   BANK0   BANK1   BANK2   BANK3   BANK4   BANK5   BANK6   BANK7   BANK8   BANK9  BANK10  BANK1
      +1  BANK12  BANK13  BANK14  BANK15
   521 ;;      Params:         0       0       0       0       0       0       0       0       0       0       0       0       
      +0       0       0       0       0
   522 ;;      Locals:         0       0       0       0       0       0       0       0       0       0       0       0       
      +0       0       0       0       0
   523 ;;      Temps:          0       0       0       0       0       0       0       0       0       0       0       0       
      +0       0       0       0       0
   524 ;;      Totals:         0       0       0       0       0       0       0       0       0       0       0       0       
      +0       0       0       0       0
   525 ;;Total ram usage:        0 bytes
   526 ;; Hardware stack levels used:    1
   527 ;; Hardware stack levels required when called:    5
   528 ;; This function calls:
   529 ;;		_SetTimer0
   530 ;; This function is called by:
   531 ;;		_Sys_Init
   532 ;; This function uses a non-reentrant model
   533 ;;
   534                           
   535                           	psect	text2
   536  0016EA                     __ptext2:
   537                           	opt stack 0
   538  0016EA                     _Timer0_Init:
   539                           	opt stack 24
   540                           
   541                           ;My_Timer.c: 45: T08BIT = 0;
   542                           
   543                           ;incstack = 0
   544  0016EA  9CD5               	bcf	4053,6,c	;volatile
   545                           
   546                           ;My_Timer.c: 46: T0CS = 0;
   547  0016EC  9AD5               	bcf	4053,5,c	;volatile
   548                           
   549                           ;My_Timer.c: 47: T0SE = 0;
   550  0016EE  98D5               	bcf	4053,4,c	;volatile
   551                           
   552                           ;My_Timer.c: 48: PSA = 0;
   553  0016F0  96D5               	bcf	4053,3,c	;volatile
   554                           
   555                           ;My_Timer.c: 49: T0PS2 = 1;
   556  0016F2  84D5               	bsf	4053,2,c	;volatile
   557                           
   558                           ;My_Timer.c: 50: T0PS1 = 1;
   559  0016F4  82D5               	bsf	4053,1,c	;volatile
   560                           
   561                           ;My_Timer.c: 51: T0PS0 = 1;
   562  0016F6  80D5               	bsf	4053,0,c	;volatile
   563                           
   564                           ;My_Timer.c: 65: SetTimer0(1);
   565  0016F8  0E00               	movlw	0
   566  0016FA  6E1E               	movwf	SetTimer0@_tmr+1,c
   567  0016FC  0E01               	movlw	1
   568  0016FE  6E1D               	movwf	SetTimer0@_tmr,c
   569  001700  EC4D  F00B         	call	_SetTimer0	;wreg free
   570                           
   571                           ;My_Timer.c: 66: TMR0ON = 1;
   572  001704  8ED5               	bsf	4053,7,c	;volatile
   573                           
   574                           ;My_Timer.c: 67: TMR0IE = 1;
   575  001706  8AF2               	bsf	intcon,5,c	;volatile
   576                           
   577                           ;My_Timer.c: 68: IPEN = 0;GIE = 1;
   578  001708  9ED0               	bcf	4048,7,c	;volatile
   579  00170A  8EF2               	bsf	intcon,7,c	;volatile
   580  00170C  0012               	return		;funcret
   581  00170E                     __end_of_Timer0_Init:
   582                           	opt stack 0
   583                           tblptru	equ	0xFF8
   584                           tblptrh	equ	0xFF7
   585                           intcon	equ	0xFF2
   586                           postinc0	equ	0xFEE
   587                           wreg	equ	0xFE8
   588                           
   589 ;; *************** function _SetTimer0 *****************
   590 ;; Defined at:
   591 ;;		line 81 in file "_01_USER/My_Timer.c"
   592 ;; Parameters:    Size  Location     Type
   593 ;;  _tmr            2   28[COMRAM] unsigned int 
   594 ;; Auto vars:     Size  Location     Type
   595 ;;		None
   596 ;; Return value:  Size  Location     Type
   597 ;;		None               void
   598 ;; Registers used:
   599 ;;		wreg, status,2, status,0
   600 ;; Tracked objects:
   601 ;;		On entry : 0/0
   602 ;;		On exit  : 0/0
   603 ;;		Unchanged: 0/0
   604 ;; Data sizes:     COMRAM   BANK0   BANK1   BANK2   BANK3   BANK4   BANK5   BANK6   BANK7   BANK8   BANK9  BANK10  BANK1
      +1  BANK12  BANK13  BANK14  BANK15
   605 ;;      Params:         2       0       0       0       0       0       0       0       0       0       0       0       
      +0       0       0       0       0
   606 ;;      Locals:         0       0       0       0       0       0       0       0       0       0       0       0       
      +0       0       0       0       0
   607 ;;      Temps:          2       0       0       0       0       0       0       0       0       0       0       0       
      +0       0       0       0       0
   608 ;;      Totals:         4       0       0       0       0       0       0       0       0       0       0       0       
      +0       0       0       0       0
   609 ;;Total ram usage:        4 bytes
   610 ;; Hardware stack levels used:    1
   611 ;; Hardware stack levels required when called:    4
   612 ;; This function calls:
   613 ;;		Nothing
   614 ;; This function is called by:
   615 ;;		_Timer0_Init
   616 ;; This function uses a non-reentrant model
   617 ;;
   618                           
   619                           	psect	text3
   620  00169A                     __ptext3:
   621                           	opt stack 0
   622  00169A                     _SetTimer0:
   623                           	opt stack 24
   624                           
   625                           ;My_Timer.c: 84: _tmr=0xffff-_tmr;
   626                           
   627                           ;incstack = 0
   628  00169A  C01D  F01F         	movff	SetTimer0@_tmr,??_SetTimer0
   629  00169E  C01E  F020         	movff	SetTimer0@_tmr+1,??_SetTimer0+1
   630  0016A2  1E1F               	comf	??_SetTimer0,f,c
   631  0016A4  1E20               	comf	??_SetTimer0+1,f,c
   632  0016A6  4A1F               	infsnz	??_SetTimer0,f,c
   633  0016A8  2A20               	incf	??_SetTimer0+1,f,c
   634  0016AA  0EFF               	movlw	255
   635  0016AC  241F               	addwf	??_SetTimer0,w,c
   636  0016AE  6E1D               	movwf	SetTimer0@_tmr,c
   637  0016B0  0EFF               	movlw	255
   638  0016B2  2020               	addwfc	??_SetTimer0+1,w,c
   639  0016B4  6E1E               	movwf	SetTimer0@_tmr+1,c
   640                           
   641                           ;My_Timer.c: 85: TMR0H = _tmr/256;
   642  0016B6  501E               	movf	SetTimer0@_tmr+1,w,c
   643  0016B8  6ED7               	movwf	4055,c	;volatile
   644                           
   645                           ;My_Timer.c: 86: TMR0L = _tmr%256;
   646  0016BA  C01D  FFD6         	movff	SetTimer0@_tmr,4054	;volatile
   647                           
   648                           ;My_Timer.c: 87: TMR0IF = 0;
   649  0016BE  94F2               	bcf	intcon,2,c	;volatile
   650  0016C0  0012               	return		;funcret
   651  0016C2                     __end_of_SetTimer0:
   652                           	opt stack 0
   653                           tblptru	equ	0xFF8
   654                           tblptrh	equ	0xFF7
   655                           intcon	equ	0xFF2
   656                           postinc0	equ	0xFEE
   657                           wreg	equ	0xFE8
   658                           
   659 ;; *************** function _Nixie_Init *****************
   660 ;; Defined at:
   661 ;;		line 40 in file "_01_USER/Nixie.c"
   662 ;; Parameters:    Size  Location     Type
   663 ;;		None
   664 ;; Auto vars:     Size  Location     Type
   665 ;;		None
   666 ;; Return value:  Size  Location     Type
   667 ;;		None               void
   668 ;; Registers used:
   669 ;;		wreg, status,2
   670 ;; Tracked objects:
   671 ;;		On entry : 0/0
   672 ;;		On exit  : 0/0
   673 ;;		Unchanged: 0/0
   674 ;; Data sizes:     COMRAM   BANK0   BANK1   BANK2   BANK3   BANK4   BANK5   BANK6   BANK7   BANK8   BANK9  BANK10  BANK1
      +1  BANK12  BANK13  BANK14  BANK15
   675 ;;      Params:         0       0       0       0       0       0       0       0       0       0       0       0       
      +0       0       0       0       0
   676 ;;      Locals:         0       0       0       0       0       0       0       0       0       0       0       0       
      +0       0       0       0       0
   677 ;;      Temps:          0       0       0       0       0       0       0       0       0       0       0       0       
      +0       0       0       0       0
   678 ;;      Totals:         0       0       0       0       0       0       0       0       0       0       0       0       
      +0       0       0       0       0
   679 ;;Total ram usage:        0 bytes
   680 ;; Hardware stack levels used:    1
   681 ;; Hardware stack levels required when called:    4
   682 ;; This function calls:
   683 ;;		Nothing
   684 ;; This function is called by:
   685 ;;		_Sys_Init
   686 ;; This function uses a non-reentrant model
   687 ;;
   688                           
   689                           	psect	text4
   690  0017C2                     __ptext4:
   691                           	opt stack 0
   692  0017C2                     _Nixie_Init:
   693                           	opt stack 25
   694                           
   695                           ;Nixie.c: 42: TRISC = 0;
   696                           
   697                           ;incstack = 0
   698  0017C2  0E00               	movlw	0
   699  0017C4  6E94               	movwf	3988,c	;volatile
   700                           
   701                           ;Nixie.c: 43: TRISAbits.TRISA4 = 0;
   702  0017C6  9892               	bcf	3986,4,c	;volatile
   703                           
   704                           ;Nixie.c: 44: TRISAbits.TRISA5 = 0;
   705  0017C8  9A92               	bcf	3986,5,c	;volatile
   706                           
   707                           ;Nixie.c: 45: ANSEL4 = 0;
   708  0017CA  010F               	movlb	15	; () banked
   709  0017CC  9925               	bcf	37,4,b	;volatile
   710                           
   711                           ; BSR set to: 15
   712                           ;Nixie.c: 47: PORTC = 0xff;
   713  0017CE  6882               	setf	3970,c	;volatile
   714                           
   715                           ; BSR set to: 15
   716                           ;Nixie.c: 49: RA4 = 1 , RA5 = 0;
   717  0017D0  8880               	bsf	3968,4,c	;volatile
   718                           
   719                           ; BSR set to: 15
   720  0017D2  9A80               	bcf	3968,5,c	;volatile
   721                           
   722                           ; BSR set to: 15
   723  0017D4  0012               	return		;funcret
   724  0017D6                     __end_of_Nixie_Init:
   725                           	opt stack 0
   726                           tblptru	equ	0xFF8
   727                           tblptrh	equ	0xFF7
   728                           intcon	equ	0xFF2
   729                           postinc0	equ	0xFEE
   730                           wreg	equ	0xFE8
   731                           
   732 ;; *************** function _Key_Init *****************
   733 ;; Defined at:
   734 ;;		line 39 in file "_01_USER/Key.c"
   735 ;; Parameters:    Size  Location     Type
   736 ;;		None
   737 ;; Auto vars:     Size  Location     Type
   738 ;;		None
   739 ;; Return value:  Size  Location     Type
   740 ;;		None               void
   741 ;; Registers used:
   742 ;;		None
   743 ;; Tracked objects:
   744 ;;		On entry : 0/0
   745 ;;		On exit  : 0/0
   746 ;;		Unchanged: 0/0
   747 ;; Data sizes:     COMRAM   BANK0   BANK1   BANK2   BANK3   BANK4   BANK5   BANK6   BANK7   BANK8   BANK9  BANK10  BANK1
      +1  BANK12  BANK13  BANK14  BANK15
   748 ;;      Params:         0       0       0       0       0       0       0       0       0       0       0       0       
      +0       0       0       0       0
   749 ;;      Locals:         0       0       0       0       0       0       0       0       0       0       0       0       
      +0       0       0       0       0
   750 ;;      Temps:          0       0       0       0       0       0       0       0       0       0       0       0       
      +0       0       0       0       0
   751 ;;      Totals:         0       0       0       0       0       0       0       0       0       0       0       0       
      +0       0       0       0       0
   752 ;;Total ram usage:        0 bytes
   753 ;; Hardware stack levels used:    1
   754 ;; Hardware stack levels required when called:    4
   755 ;; This function calls:
   756 ;;		Nothing
   757 ;; This function is called by:
   758 ;;		_Sys_Init
   759 ;; This function uses a non-reentrant model
   760 ;;
   761                           
   762                           	psect	text5
   763  0017D6                     __ptext5:
   764                           	opt stack 0
   765  0017D6                     _Key_Init:
   766                           	opt stack 25
   767                           
   768                           ;Key.c: 41: TRISFbits.TRISF2 = 1;
   769                           
   770                           ; BSR set to: 15
   771                           ;incstack = 0
   772  0017D6  8497               	bsf	3991,2,c	;volatile
   773                           
   774                           ;Key.c: 42: TRISFbits.TRISF3 = 1;
   775  0017D8  8697               	bsf	3991,3,c	;volatile
   776                           
   777                           ;Key.c: 44: ANSEL7 = 0;
   778  0017DA  010F               	movlb	15	; () banked
   779  0017DC  9F25               	bcf	37,7,b	;volatile
   780                           
   781                           ;Key.c: 45: ANSEL8 = 0;
   782  0017DE  010F               	movlb	15	; () banked
   783  0017E0  9124               	bcf	36,0,b	;volatile
   784                           
   785                           ; BSR set to: 15
   786  0017E2  0012               	return		;funcret
   787  0017E4                     __end_of_Key_Init:
   788                           	opt stack 0
   789                           tblptru	equ	0xFF8
   790                           tblptrh	equ	0xFF7
   791                           intcon	equ	0xFF2
   792                           postinc0	equ	0xFEE
   793                           wreg	equ	0xFE8
   794                           
   795 ;; *************** function _IR2184_Init *****************
   796 ;; Defined at:
   797 ;;		line 35 in file "_01_USER/IR2184.c"
   798 ;; Parameters:    Size  Location     Type
   799 ;;		None
   800 ;; Auto vars:     Size  Location     Type
   801 ;;		None
   802 ;; Return value:  Size  Location     Type
   803 ;;		None               void
   804 ;; Registers used:
   805 ;;		None
   806 ;; Tracked objects:
   807 ;;		On entry : 0/0
   808 ;;		On exit  : 0/0
   809 ;;		Unchanged: 0/0
   810 ;; Data sizes:     COMRAM   BANK0   BANK1   BANK2   BANK3   BANK4   BANK5   BANK6   BANK7   BANK8   BANK9  BANK10  BANK1
      +1  BANK12  BANK13  BANK14  BANK15
   811 ;;      Params:         0       0       0       0       0       0       0       0       0       0       0       0       
      +0       0       0       0       0
   812 ;;      Locals:         0       0       0       0       0       0       0       0       0       0       0       0       
      +0       0       0       0       0
   813 ;;      Temps:          0       0       0       0       0       0       0       0       0       0       0       0       
      +0       0       0       0       0
   814 ;;      Totals:         0       0       0       0       0       0       0       0       0       0       0       0       
      +0       0       0       0       0
   815 ;;Total ram usage:        0 bytes
   816 ;; Hardware stack levels used:    1
   817 ;; Hardware stack levels required when called:    4
   818 ;; This function calls:
   819 ;;		Nothing
   820 ;; This function is called by:
   821 ;;		_Sys_Init
   822 ;; This function uses a non-reentrant model
   823 ;;
   824                           
   825                           	psect	text6
   826  00170E                     __ptext6:
   827                           	opt stack 0
   828  00170E                     _IR2184_Init:
   829                           	opt stack 25
   830                           
   831                           ;IR2184.c: 37: TRISDbits.TRISD2 = 0;
   832                           
   833                           ; BSR set to: 15
   834                           ;incstack = 0
   835  00170E  9495               	bcf	3989,2,c	;volatile
   836                           
   837                           ;IR2184.c: 38: TRISDbits.TRISD3 = 0;
   838  001710  9695               	bcf	3989,3,c	;volatile
   839                           
   840                           ;IR2184.c: 40: TRISEbits.TRISE5 = 0;
   841  001712  9A96               	bcf	3990,5,c	;volatile
   842                           
   843                           ;IR2184.c: 41: TRISEbits.TRISE6 = 0;
   844  001714  9C96               	bcf	3990,6,c	;volatile
   845                           
   846                           ;IR2184.c: 42: CCP7OD = 0;
   847  001716  010F               	movlb	15	; () banked
   848  001718  9928               	bcf	40,4,b	;volatile
   849                           
   850                           ;IR2184.c: 44: TRISFbits.TRISF4 = 1;
   851  00171A  8897               	bsf	3991,4,c	;volatile
   852                           
   853                           ;IR2184.c: 45: TRISFbits.TRISF5 = 1;
   854  00171C  8A97               	bsf	3991,5,c	;volatile
   855                           
   856                           ;IR2184.c: 47: ANSEL9 = 0;
   857  00171E  010F               	movlb	15	; () banked
   858  001720  9324               	bcf	36,1,b	;volatile
   859                           
   860                           ;IR2184.c: 48: ANSEL10 = 0;
   861  001722  010F               	movlb	15	; () banked
   862  001724  9524               	bcf	36,2,b	;volatile
   863                           
   864                           ;IR2184.c: 50: RD2 = 1; RD3 = 0;
   865  001726  8483               	bsf	3971,2,c	;volatile
   866  001728  9683               	bcf	3971,3,c	;volatile
   867                           
   868                           ;IR2184.c: 51: RE5 = 1; RE6 = 0;
   869  00172A  8A84               	bsf	3972,5,c	;volatile
   870  00172C  9C84               	bcf	3972,6,c	;volatile
   871                           
   872                           ; BSR set to: 15
   873  00172E  0012               	return		;funcret
   874  001730                     __end_of_IR2184_Init:
   875                           	opt stack 0
   876                           tblptru	equ	0xFF8
   877                           tblptrh	equ	0xFF7
   878                           intcon	equ	0xFF2
   879                           postinc0	equ	0xFEE
   880                           wreg	equ	0xFE8
   881                           
   882 ;; *************** function _EEPROM_Reads *****************
   883 ;; Defined at:
   884 ;;		line 18 in file "_01_USER/EEPROM.c"
   885 ;; Parameters:    Size  Location     Type
   886 ;;  Addr            2   30[COMRAM] unsigned int 
   887 ;;  DateBuff        2   32[COMRAM] PTR unsigned char 
   888 ;;		 -> Sys_Init@_databuff(1), 
   889 ;;  length          2   34[COMRAM] unsigned int 
   890 ;; Auto vars:     Size  Location     Type
   891 ;;  i               1   36[COMRAM] unsigned char 
   892 ;; Return value:  Size  Location     Type
   893 ;;                  1    wreg      unsigned char 
   894 ;; Registers used:
   895 ;;		wreg, fsr2l, fsr2h, status,2, status,0, prodl, prodh, cstack
   896 ;; Tracked objects:
   897 ;;		On entry : 0/0
   898 ;;		On exit  : 0/0
   899 ;;		Unchanged: 0/0
   900 ;; Data sizes:     COMRAM   BANK0   BANK1   BANK2   BANK3   BANK4   BANK5   BANK6   BANK7   BANK8   BANK9  BANK10  BANK1
      +1  BANK12  BANK13  BANK14  BANK15
   901 ;;      Params:         6       0       0       0       0       0       0       0       0       0       0       0       
      +0       0       0       0       0
   902 ;;      Locals:         1       0       0       0       0       0       0       0       0       0       0       0       
      +0       0       0       0       0
   903 ;;      Temps:          0       2       0       0       0       0       0       0       0       0       0       0       
      +0       0       0       0       0
   904 ;;      Totals:         7       2       0       0       0       0       0       0       0       0       0       0       
      +0       0       0       0       0
   905 ;;Total ram usage:        9 bytes
   906 ;; Hardware stack levels used:    1
   907 ;; Hardware stack levels required when called:    5
   908 ;; This function calls:
   909 ;;		_Read_b_eep
   910 ;; This function is called by:
   911 ;;		_Sys_Init
   912 ;; This function uses a non-reentrant model
   913 ;;
   914                           
   915                           	psect	text7
   916  00142C                     __ptext7:
   917                           	opt stack 0
   918  00142C                     _EEPROM_Reads:
   919                           	opt stack 24
   920                           
   921                           ;EEPROM.c: 20: unsigned char i;
   922                           ;EEPROM.c: 22: if(Addr + length <= 1024)
   923                           
   924                           ; BSR set to: 15
   925                           ;incstack = 0
   926  00142C  5023               	movf	EEPROM_Reads@length,w,c
   927  00142E  241F               	addwf	EEPROM_Reads@Addr,w,c
   928  001430  0100               	movlb	0	; () banked
   929  001432  6F60               	movwf	??_EEPROM_Reads& (0+255),b
   930  001434  5024               	movf	EEPROM_Reads@length+1,w,c
   931  001436  2020               	addwfc	EEPROM_Reads@Addr+1,w,c
   932  001438  0100               	movlb	0	; () banked
   933  00143A  6F61               	movwf	(??_EEPROM_Reads+1)& (0+255),b
   934  00143C  0100               	movlb	0	; () banked
   935  00143E  0560               	decf	??_EEPROM_Reads& (0+255),w,b
   936  001440  0E04               	movlw	4
   937  001442  0100               	movlb	0	; () banked
   938  001444  5961               	subwfb	(??_EEPROM_Reads+1)& (0+255),w,b
   939  001446  B0D8               	btfsc	status,0,c
   940  001448  0012               	return	
   941                           
   942                           ; BSR set to: 0
   943                           ;EEPROM.c: 23: {
   944                           ;EEPROM.c: 24: for(i=0; i<length; ++i)
   945  00144A  0E00               	movlw	0
   946  00144C  6E25               	movwf	EEPROM_Reads@i,c
   947  00144E  D013               	goto	l1874
   948  001450                     l1870:
   949                           
   950                           ; BSR set to: 0
   951                           ;EEPROM.c: 25: DateBuff[i] = Read_b_eep(Addr + i);
   952  001450  5025               	movf	EEPROM_Reads@i,w,c
   953  001452  0D01               	mullw	1
   954  001454  50F3               	movf	prodl,w,c
   955  001456  2421               	addwf	EEPROM_Reads@DateBuff,w,c
   956  001458  6ED9               	movwf	fsr2l,c
   957  00145A  50F4               	movf	prodh,w,c
   958  00145C  2022               	addwfc	EEPROM_Reads@DateBuff+1,w,c
   959  00145E  6EDA               	movwf	fsr2h,c
   960  001460  5025               	movf	EEPROM_Reads@i,w,c
   961  001462  241F               	addwf	EEPROM_Reads@Addr,w,c
   962  001464  6E1D               	movwf	Read_b_eep@badd,c
   963  001466  0E00               	movlw	0
   964  001468  2020               	addwfc	EEPROM_Reads@Addr+1,w,c
   965  00146A  6E1E               	movwf	Read_b_eep@badd+1,c
   966  00146C  ECA5  F00B         	call	_Read_b_eep	;wreg free
   967  001470  6EDF               	movwf	indf2,c
   968  001472  2A25               	incf	EEPROM_Reads@i,f,c
   969  001474  D000               	goto	l1874
   970  001476                     l1874:
   971  001476  5025               	movf	EEPROM_Reads@i,w,c
   972  001478  0100               	movlb	0	; () banked
   973  00147A  6F60               	movwf	??_EEPROM_Reads& (0+255),b
   974  00147C  6B61               	clrf	(??_EEPROM_Reads+1)& (0+255),b
   975  00147E  5023               	movf	EEPROM_Reads@length,w,c
   976  001480  0100               	movlb	0	; () banked
   977  001482  5D60               	subwf	??_EEPROM_Reads& (0+255),w,b
   978  001484  5024               	movf	EEPROM_Reads@length+1,w,c
   979  001486  0100               	movlb	0	; () banked
   980  001488  5961               	subwfb	(??_EEPROM_Reads+1)& (0+255),w,b
   981  00148A  B0D8               	btfsc	status,0,c
   982  00148C  0012               	return	
   983  00148E  D7E0               	goto	l1870
   984                           
   985                           ; BSR set to: 0
   986                           ;EEPROM.c: 28: else
   987                           ;EEPROM.c: 29: return 1;
   988                           ;	Return value of _EEPROM_Reads is never used
   989                           
   990                           ; BSR set to: 0
   991                           ;EEPROM.c: 27: }
   992                           
   993                           ; BSR set to: 0
   994                           ;EEPROM.c: 26: return 0;
   995                           ;	Return value of _EEPROM_Reads is never used
   996  001490  0012               	return	
   997                           
   998                           ; BSR set to: 0
   999                           
  1000                           ; BSR set to: 0
  1001  001492  0012               	return		;funcret
  1002  001494                     __end_of_EEPROM_Reads:
  1003                           	opt stack 0
  1004                           tblptru	equ	0xFF8
  1005                           tblptrh	equ	0xFF7
  1006                           prodh	equ	0xFF4
  1007                           prodl	equ	0xFF3
  1008                           intcon	equ	0xFF2
  1009                           postinc0	equ	0xFEE
  1010                           wreg	equ	0xFE8
  1011                           indf2	equ	0xFDF
  1012                           fsr2h	equ	0xFDA
  1013                           fsr2l	equ	0xFD9
  1014                           status	equ	0xFD8
  1015                           
  1016 ;; *************** function _Read_b_eep *****************
  1017 ;; Defined at:
  1018 ;;		line 35 in file "F:\Program Files (x86)\Microchip\xc8\v1.34\sources\pic18\plib\EEP\read_B.c"
  1019 ;; Parameters:    Size  Location     Type
  1020 ;;  badd            2   28[COMRAM] unsigned int 
  1021 ;; Auto vars:     Size  Location     Type
  1022 ;;		None
  1023 ;; Return value:  Size  Location     Type
  1024 ;;                  1    wreg      unsigned char 
  1025 ;; Registers used:
  1026 ;;		wreg, status,2, status,0
  1027 ;; Tracked objects:
  1028 ;;		On entry : 0/0
  1029 ;;		On exit  : 0/0
  1030 ;;		Unchanged: 0/0
  1031 ;; Data sizes:     COMRAM   BANK0   BANK1   BANK2   BANK3   BANK4   BANK5   BANK6   BANK7   BANK8   BANK9  BANK10  BANK1
      +1  BANK12  BANK13  BANK14  BANK15
  1032 ;;      Params:         2       0       0       0       0       0       0       0       0       0       0       0       
      +0       0       0       0       0
  1033 ;;      Locals:         0       0       0       0       0       0       0       0       0       0       0       0       
      +0       0       0       0       0
  1034 ;;      Temps:          0       0       0       0       0       0       0       0       0       0       0       0       
      +0       0       0       0       0
  1035 ;;      Totals:         2       0       0       0       0       0       0       0       0       0       0       0       
      +0       0       0       0       0
  1036 ;;Total ram usage:        2 bytes
  1037 ;; Hardware stack levels used:    1
  1038 ;; Hardware stack levels required when called:    4
  1039 ;; This function calls:
  1040 ;;		Nothing
  1041 ;; This function is called by:
  1042 ;;		_EEPROM_Reads
  1043 ;; This function uses a non-reentrant model
  1044 ;;
  1045                           
  1046                           	psect	text8
  1047  00174A                     __ptext8:
  1048                           	opt stack 0
  1049  00174A                     _Read_b_eep:
  1050                           	opt stack 24
  1051                           
  1052                           ; BSR set to: 0
  1053                           ;incstack = 0
  1054  00174A  501E               	movf	Read_b_eep@badd+1,w,c
  1055  00174C  0B03               	andlw	3
  1056  00174E  6E63               	movwf	3939,c	;volatile
  1057  001750  C01D  FF62         	movff	Read_b_eep@badd,3938	;volatile
  1058  001754  9C7F               	bcf	3967,6,c	;volatile
  1059  001756  9E7F               	bcf	3967,7,c	;volatile
  1060  001758  807F               	bsf	3967,0,c	;volatile
  1061  00175A  F000               	nop	
  1062  00175C  F000               	nop	
  1063  00175E  5061               	movf	3937,w,c	;volatile
  1064  001760  0012               	return	
  1065  001762  0012               	return		;funcret
  1066  001764                     __end_of_Read_b_eep:
  1067                           	opt stack 0
  1068                           tblptru	equ	0xFF8
  1069                           tblptrh	equ	0xFF7
  1070                           prodh	equ	0xFF4
  1071                           prodl	equ	0xFF3
  1072                           intcon	equ	0xFF2
  1073                           postinc0	equ	0xFEE
  1074                           wreg	equ	0xFE8
  1075                           indf2	equ	0xFDF
  1076                           fsr2h	equ	0xFDA
  1077                           fsr2l	equ	0xFD9
  1078                           status	equ	0xFD8
  1079                           
  1080 ;; *************** function _Run *****************
  1081 ;; Defined at:
  1082 ;;		line 87 in file "_01_USER/Run.c"
  1083 ;; Parameters:    Size  Location     Type
  1084 ;;		None
  1085 ;; Auto vars:     Size  Location     Type
  1086 ;;		None
  1087 ;; Return value:  Size  Location     Type
  1088 ;;		None               void
  1089 ;; Registers used:
  1090 ;;		wreg, status,2, status,0, cstack
  1091 ;; Tracked objects:
  1092 ;;		On entry : 0/0
  1093 ;;		On exit  : 0/0
  1094 ;;		Unchanged: 0/0
  1095 ;; Data sizes:     COMRAM   BANK0   BANK1   BANK2   BANK3   BANK4   BANK5   BANK6   BANK7   BANK8   BANK9  BANK10  BANK1
      +1  BANK12  BANK13  BANK14  BANK15
  1096 ;;      Params:         0       0       0       0       0       0       0       0       0       0       0       0       
      +0       0       0       0       0
  1097 ;;      Locals:         0       0       0       0       0       0       0       0       0       0       0       0       
      +0       0       0       0       0
  1098 ;;      Temps:          2       0       0       0       0       0       0       0       0       0       0       0       
      +0       0       0       0       0
  1099 ;;      Totals:         2       0       0       0       0       0       0       0       0       0       0       0       
      +0       0       0       0       0
  1100 ;;Total ram usage:        2 bytes
  1101 ;; Hardware stack levels used:    1
  1102 ;; Hardware stack levels required when called:    6
  1103 ;; This function calls:
  1104 ;;		_delay_ms
  1105 ;; This function is called by:
  1106 ;;		_main
  1107 ;; This function uses a non-reentrant model
  1108 ;;
  1109                           
  1110                           	psect	text9
  1111  001346                     __ptext9:
  1112                           	opt stack 0
  1113  001346                     _Run:
  1114                           	opt stack 24
  1115                           
  1116                           ;Run.c: 89: if( RF4 == 0 )
  1117                           
  1118                           ;incstack = 0
  1119  001346  B885               	btfsc	3973,4,c	;volatile
  1120  001348  D01B               	goto	l180
  1121                           
  1122                           ;Run.c: 90: {
  1123                           ;Run.c: 91: delay_ms(20);
  1124  00134A  0E00               	movlw	0
  1125  00134C  6E21               	movwf	delay_ms@_ms+1,c
  1126  00134E  0E14               	movlw	20
  1127  001350  6E20               	movwf	delay_ms@_ms,c
  1128  001352  ECB2  F00B         	call	_delay_ms	;wreg free
  1129                           
  1130                           ;Run.c: 92: if( RF4 == 0 )
  1131  001356  B885               	btfsc	3973,4,c	;volatile
  1132  001358  D013               	goto	l180
  1133                           
  1134                           ;Run.c: 93: {
  1135                           ;Run.c: 94: IR2184_Timer = 0;
  1136  00135A  0E00               	movlw	0
  1137  00135C  6E2B               	movwf	_IR2184_Timer+1,c
  1138  00135E  0E00               	movlw	0
  1139  001360  6E2A               	movwf	_IR2184_Timer,c
  1140                           
  1141                           ;Run.c: 95: RD2 = 0; RD3 = 1;
  1142  001362  9483               	bcf	3971,2,c	;volatile
  1143  001364  8683               	bsf	3971,3,c	;volatile
  1144                           
  1145                           ;Run.c: 96: while( IR2184_Timer < IR2184_Num );
  1146  001366  D000               	goto	l1678
  1147  001368                     l1678:
  1148  001368  502F               	movf	_IR2184_Num,w,c
  1149  00136A  6E22               	movwf	??_Run& (0+255),c
  1150  00136C  6A23               	clrf	(??_Run+1)& (0+255),c
  1151  00136E  5022               	movf	??_Run,w,c
  1152  001370  5C2A               	subwf	_IR2184_Timer,w,c
  1153  001372  5023               	movf	??_Run+1,w,c
  1154  001374  582B               	subwfb	_IR2184_Timer+1,w,c
  1155  001376  A0D8               	btfss	status,0,c
  1156  001378  D7F7               	goto	l1678
  1157                           
  1158                           ;Run.c: 97: RD2 = 1; RD3 = 0;
  1159  00137A  8483               	bsf	3971,2,c	;volatile
  1160  00137C  9683               	bcf	3971,3,c	;volatile
  1161  00137E  D000               	goto	l180
  1162  001380                     l180:
  1163                           
  1164                           ;Run.c: 98: }
  1165                           ;Run.c: 100: }
  1166                           ;Run.c: 102: if( RF5 == 0 )
  1167  001380  BA85               	btfsc	3973,5,c	;volatile
  1168  001382  0012               	return	
  1169                           
  1170                           ;Run.c: 103: {
  1171                           ;Run.c: 104: delay_ms(20);
  1172  001384  0E00               	movlw	0
  1173  001386  6E21               	movwf	delay_ms@_ms+1,c
  1174  001388  0E14               	movlw	20
  1175  00138A  6E20               	movwf	delay_ms@_ms,c
  1176  00138C  ECB2  F00B         	call	_delay_ms	;wreg free
  1177                           
  1178                           ;Run.c: 105: if( RF5 == 0 )
  1179  001390  BA85               	btfsc	3973,5,c	;volatile
  1180  001392  0012               	return	
  1181                           
  1182                           ;Run.c: 106: {
  1183                           ;Run.c: 107: IR2184_Timer = 0;
  1184  001394  0E00               	movlw	0
  1185  001396  6E2B               	movwf	_IR2184_Timer+1,c
  1186  001398  0E00               	movlw	0
  1187  00139A  6E2A               	movwf	_IR2184_Timer,c
  1188                           
  1189                           ;Run.c: 108: RE5 = 0; RE6 = 1;
  1190  00139C  9A84               	bcf	3972,5,c	;volatile
  1191  00139E  8C84               	bsf	3972,6,c	;volatile
  1192                           
  1193                           ;Run.c: 109: while( IR2184_Timer < IR2184_Num );
  1194  0013A0  D000               	goto	l1690
  1195  0013A2                     l1690:
  1196  0013A2  502F               	movf	_IR2184_Num,w,c
  1197  0013A4  6E22               	movwf	??_Run& (0+255),c
  1198  0013A6  6A23               	clrf	(??_Run+1)& (0+255),c
  1199  0013A8  5022               	movf	??_Run,w,c
  1200  0013AA  5C2A               	subwf	_IR2184_Timer,w,c
  1201  0013AC  5023               	movf	??_Run+1,w,c
  1202  0013AE  582B               	subwfb	_IR2184_Timer+1,w,c
  1203  0013B0  A0D8               	btfss	status,0,c
  1204  0013B2  D7F7               	goto	l1690
  1205                           
  1206                           ;Run.c: 110: RE5 = 1; RE6 = 0;
  1207  0013B4  8A84               	bsf	3972,5,c	;volatile
  1208  0013B6  9C84               	bcf	3972,6,c	;volatile
  1209  0013B8  0012               	return	
  1210  0013BA  0012               	return		;funcret
  1211  0013BC                     __end_of_Run:
  1212                           	opt stack 0
  1213                           tblptru	equ	0xFF8
  1214                           tblptrh	equ	0xFF7
  1215                           prodh	equ	0xFF4
  1216                           prodl	equ	0xFF3
  1217                           intcon	equ	0xFF2
  1218                           postinc0	equ	0xFEE
  1219                           wreg	equ	0xFE8
  1220                           indf2	equ	0xFDF
  1221                           fsr2h	equ	0xFDA
  1222                           fsr2l	equ	0xFD9
  1223                           status	equ	0xFD8
  1224                           
  1225 ;; *************** function _delay_ms *****************
  1226 ;; Defined at:
  1227 ;;		line 35 in file "_01_USER/My_Delay.c"
  1228 ;; Parameters:    Size  Location     Type
  1229 ;;  _ms             2   31[COMRAM] unsigned int 
  1230 ;; Auto vars:     Size  Location     Type
  1231 ;;		None
  1232 ;; Return value:  Size  Location     Type
  1233 ;;		None               void
  1234 ;; Registers used:
  1235 ;;		wreg, status,2, status,0, cstack
  1236 ;; Tracked objects:
  1237 ;;		On entry : 0/0
  1238 ;;		On exit  : 0/0
  1239 ;;		Unchanged: 0/0
  1240 ;; Data sizes:     COMRAM   BANK0   BANK1   BANK2   BANK3   BANK4   BANK5   BANK6   BANK7   BANK8   BANK9  BANK10  BANK1
      +1  BANK12  BANK13  BANK14  BANK15
  1241 ;;      Params:         2       0       0       0       0       0       0       0       0       0       0       0       
      +0       0       0       0       0
  1242 ;;      Locals:         0       0       0       0       0       0       0       0       0       0       0       0       
      +0       0       0       0       0
  1243 ;;      Temps:          0       0       0       0       0       0       0       0       0       0       0       0       
      +0       0       0       0       0
  1244 ;;      Totals:         2       0       0       0       0       0       0       0       0       0       0       0       
      +0       0       0       0       0
  1245 ;;Total ram usage:        2 bytes
  1246 ;; Hardware stack levels used:    1
  1247 ;; Hardware stack levels required when called:    5
  1248 ;; This function calls:
  1249 ;;		_delay1ms
  1250 ;; This function is called by:
  1251 ;;		_Run
  1252 ;; This function uses a non-reentrant model
  1253 ;;
  1254                           
  1255                           	psect	text10
  1256  001764                     __ptext10:
  1257                           	opt stack 0
  1258  001764                     _delay_ms:
  1259                           	opt stack 24
  1260                           
  1261                           ;My_Delay.c: 37: while(_ms--) delay1ms();
  1262                           
  1263                           ;incstack = 0
  1264  001764  D003               	goto	l1624
  1265  001766                     l1622:
  1266  001766  EC31  F00B         	call	_delay1ms	;wreg free
  1267  00176A  D000               	goto	l1624
  1268  00176C                     l1624:
  1269  00176C  0620               	decf	delay_ms@_ms,f,c
  1270  00176E  A0D8               	btfss	status,0,c
  1271  001770  0621               	decf	delay_ms@_ms+1,f,c
  1272  001772  2820               	incf	delay_ms@_ms,w,c
  1273  001774  E1F8               	bnz	l1622
  1274  001776  2821               	incf	delay_ms@_ms+1,w,c
  1275  001778  A4D8               	btfss	status,2,c
  1276  00177A  D7F5               	goto	l1622
  1277  00177C  0012               	return		;funcret
  1278  00177E                     __end_of_delay_ms:
  1279                           	opt stack 0
  1280                           tblptru	equ	0xFF8
  1281                           tblptrh	equ	0xFF7
  1282                           prodh	equ	0xFF4
  1283                           prodl	equ	0xFF3
  1284                           intcon	equ	0xFF2
  1285                           postinc0	equ	0xFEE
  1286                           wreg	equ	0xFE8
  1287                           indf2	equ	0xFDF
  1288                           fsr2h	equ	0xFDA
  1289                           fsr2l	equ	0xFD9
  1290                           status	equ	0xFD8
  1291                           
  1292 ;; *************** function _delay1ms *****************
  1293 ;; Defined at:
  1294 ;;		line 58 in file "_01_USER/My_Delay.c"
  1295 ;; Parameters:    Size  Location     Type
  1296 ;;		None
  1297 ;; Auto vars:     Size  Location     Type
  1298 ;;  c               1   30[COMRAM] unsigned char 
  1299 ;;  b               1   29[COMRAM] unsigned char 
  1300 ;;  a               1   28[COMRAM] unsigned char 
  1301 ;; Return value:  Size  Location     Type
  1302 ;;		None               void
  1303 ;; Registers used:
  1304 ;;		wreg, status,2, status,0
  1305 ;; Tracked objects:
  1306 ;;		On entry : 0/0
  1307 ;;		On exit  : 0/0
  1308 ;;		Unchanged: 0/0
  1309 ;; Data sizes:     COMRAM   BANK0   BANK1   BANK2   BANK3   BANK4   BANK5   BANK6   BANK7   BANK8   BANK9  BANK10  BANK1
      +1  BANK12  BANK13  BANK14  BANK15
  1310 ;;      Params:         0       0       0       0       0       0       0       0       0       0       0       0       
      +0       0       0       0       0
  1311 ;;      Locals:         3       0       0       0       0       0       0       0       0       0       0       0       
      +0       0       0       0       0
  1312 ;;      Temps:          0       0       0       0       0       0       0       0       0       0       0       0       
      +0       0       0       0       0
  1313 ;;      Totals:         3       0       0       0       0       0       0       0       0       0       0       0       
      +0       0       0       0       0
  1314 ;;Total ram usage:        3 bytes
  1315 ;; Hardware stack levels used:    1
  1316 ;; Hardware stack levels required when called:    4
  1317 ;; This function calls:
  1318 ;;		Nothing
  1319 ;; This function is called by:
  1320 ;;		_delay_ms
  1321 ;; This function uses a non-reentrant model
  1322 ;;
  1323                           
  1324                           	psect	text11
  1325  001662                     __ptext11:
  1326                           	opt stack 0
  1327  001662                     _delay1ms:
  1328                           	opt stack 24
  1329                           
  1330                           ;My_Delay.c: 60: unsigned char a,b,c;
  1331                           ;My_Delay.c: 61: for(c=1;c>0;c--)
  1332                           
  1333                           ;incstack = 0
  1334  001662  0E01               	movlw	1
  1335  001664  6E1F               	movwf	delay1ms@c,c
  1336  001666  501F               	movf	delay1ms@c,w,c
  1337  001668  B4D8               	btfsc	status,2,c
  1338  00166A  0012               	return	
  1339  00166C  D001               	goto	l960
  1340  00166E  0012               	return	
  1341  001670                     l960:
  1342                           
  1343                           ;My_Delay.c: 62: for(b=94;b>0;b--)
  1344  001670  0E5E               	movlw	94
  1345  001672  6E1E               	movwf	delay1ms@b,c
  1346  001674  501E               	movf	delay1ms@b,w,c
  1347  001676  B4D8               	btfsc	status,2,c
  1348  001678  D00D               	goto	l976
  1349  00167A  D001               	goto	l964
  1350  00167C  D00B               	goto	l976
  1351  00167E                     l964:
  1352                           
  1353                           ;My_Delay.c: 63: for(a=2;a>0;a--);
  1354  00167E  0E02               	movlw	2
  1355  001680  6E1D               	movwf	delay1ms@a,c
  1356  001682  501D               	movf	delay1ms@a,w,c
  1357  001684  B4D8               	btfsc	status,2,c
  1358  001686  D004               	goto	l972
  1359  001688  D001               	goto	l968
  1360  00168A  D002               	goto	l972
  1361  00168C                     l968:
  1362  00168C  061D               	decf	delay1ms@a,f,c
  1363  00168E  D7F9               	goto	L1
  1364  001690                     l972:
  1365  001690  061E               	decf	delay1ms@b,f,c
  1366  001692  D7F0               	goto	L2
  1367  001694                     l976:
  1368  001694  061F               	decf	delay1ms@c,f,c
  1369  001696  D7E7               	goto	L3
  1370  001698  0012               	return		;funcret
  1371  00169A                     __end_of_delay1ms:
  1372                           	opt stack 0
  1373                           tblptru	equ	0xFF8
  1374                           tblptrh	equ	0xFF7
  1375                           prodh	equ	0xFF4
  1376                           prodl	equ	0xFF3
  1377                           intcon	equ	0xFF2
  1378                           postinc0	equ	0xFEE
  1379                           wreg	equ	0xFE8
  1380                           indf2	equ	0xFDF
  1381                           fsr2h	equ	0xFDA
  1382                           fsr2l	equ	0xFD9
  1383                           status	equ	0xFD8
  1384                           
  1385 ;; *************** function _Sys_Cyc *****************
  1386 ;; Defined at:
  1387 ;;		line 100 in file "_01_USER/My_Timer.c"
  1388 ;; Parameters:    Size  Location     Type
  1389 ;;		None
  1390 ;; Auto vars:     Size  Location     Type
  1391 ;;		None
  1392 ;; Return value:  Size  Location     Type
  1393 ;;		None               void
  1394 ;; Registers used:
  1395 ;;		wreg, fsr1l, fsr1h, fsr2l, fsr2h, status,2, status,0, tblptrl, tblptrh, tblptru, prodl, prodh, cstack
  1396 ;; Tracked objects:
  1397 ;;		On entry : 0/0
  1398 ;;		On exit  : 0/0
  1399 ;;		Unchanged: 0/0
  1400 ;; Data sizes:     COMRAM   BANK0   BANK1   BANK2   BANK3   BANK4   BANK5   BANK6   BANK7   BANK8   BANK9  BANK10  BANK1
      +1  BANK12  BANK13  BANK14  BANK15
  1401 ;;      Params:         0       0       0       0       0       0       0       0       0       0       0       0       
      +0       0       0       0       0
  1402 ;;      Locals:         0       0       0       0       0       0       0       0       0       0       0       0       
      +0       0       0       0       0
  1403 ;;      Temps:         14       0       0       0       0       0       0       0       0       0       0       0       
      +0       0       0       0       0
  1404 ;;      Totals:        14       0       0       0       0       0       0       0       0       0       0       0       
      +0       0       0       0       0
  1405 ;;Total ram usage:       14 bytes
  1406 ;; Hardware stack levels used:    1
  1407 ;; Hardware stack levels required when called:    3
  1408 ;; This function calls:
  1409 ;;		_Key_FSM_Scan
  1410 ;;		_Manage_Message
  1411 ;;		_Show_Result
  1412 ;;		___awmod
  1413 ;;		___llmod
  1414 ;;		___lwmod
  1415 ;;		i2_SetTimer0
  1416 ;; This function is called by:
  1417 ;;		Interrupt level 2
  1418 ;; This function uses a non-reentrant model
  1419 ;;
  1420                           
  1421                           	psect	intcode
  1422  000008                     __pintcode:
  1423                           	opt stack 0
  1424  000008                     _Sys_Cyc:
  1425                           	opt stack 24
  1426                           
  1427                           ;incstack = 0
  1428  000008  CFFA F00F          	movff	pclath,??_Sys_Cyc
  1429  00000C  CFFB F010          	movff	pclatu,??_Sys_Cyc+1
  1430  000010  CFE9 F011          	movff	fsr0l,??_Sys_Cyc+2
  1431  000014  CFEA F012          	movff	fsr0h,??_Sys_Cyc+3
  1432  000018  CFE1 F013          	movff	fsr1l,??_Sys_Cyc+4
  1433  00001C  CFE2 F014          	movff	fsr1h,??_Sys_Cyc+5
  1434  000020  CFD9 F015          	movff	fsr2l,??_Sys_Cyc+6
  1435  000024  CFDA F016          	movff	fsr2h,??_Sys_Cyc+7
  1436  000028  CFF3 F017          	movff	prodl,??_Sys_Cyc+8
  1437  00002C  CFF4 F018          	movff	prodh,??_Sys_Cyc+9
  1438  000030  CFF6 F019          	movff	tblptrl,??_Sys_Cyc+10
  1439  000034  CFF7 F01A          	movff	tblptrh,??_Sys_Cyc+11
  1440  000038  CFF8 F01B          	movff	tblptru,??_Sys_Cyc+12
  1441  00003C  CFF5 F01C          	movff	tablat,??_Sys_Cyc+13
  1442                           
  1443                           ;My_Timer.c: 102: if(TMR0IF && TMR0IE)
  1444  000040  B4F2               	btfsc	intcon,2,c	;volatile
  1445  000042  AAF2               	btfss	intcon,5,c	;volatile
  1446  000044  D06E               	goto	i2l123
  1447                           
  1448                           ;My_Timer.c: 103: {
  1449                           ;My_Timer.c: 104: SetTimer0(78);
  1450  000046  0E00               	movlw	0
  1451  000048  6E02               	movwf	i2SetTimer0@_tmr+1,c
  1452  00004A  0E4E               	movlw	78
  1453  00004C  6E01               	movwf	i2SetTimer0@_tmr,c
  1454  00004E  EC61  F00B         	call	i2_SetTimer0	;wreg free
  1455                           
  1456                           ;My_Timer.c: 106: if(Watch_Flag == 1) { asm(" clrwdt"); Watch_Flag = 0;}
  1457  000052  0431               	decf	_Watch_Flag,w,c
  1458  000054  A4D8               	btfss	status,2,c
  1459  000056  D004               	goto	i2l1794
  1460  000058  0004               	clrwdt		;# 
  1461  00005A  0E00               	movlw	0
  1462  00005C  6E31               	movwf	_Watch_Flag,c
  1463  00005E  D000               	goto	i2l1794
  1464  000060                     i2l1794:
  1465                           
  1466                           ;My_Timer.c: 108: Timer_Cyc = (Timer_Cyc+1) % 100000000;
  1467  000060  0E01               	movlw	1
  1468  000062  2426               	addwf	_Timer_Cyc,w,c
  1469  000064  6E01               	movwf	___llmod@dividend,c
  1470  000066  0E00               	movlw	0
  1471  000068  2027               	addwfc	_Timer_Cyc+1,w,c
  1472  00006A  6E02               	movwf	___llmod@dividend+1,c
  1473  00006C  0E00               	movlw	0
  1474  00006E  2028               	addwfc	_Timer_Cyc+2,w,c
  1475  000070  6E03               	movwf	___llmod@dividend+2,c
  1476  000072  0E00               	movlw	0
  1477  000074  2029               	addwfc	_Timer_Cyc+3,w,c
  1478  000076  6E04               	movwf	___llmod@dividend+3,c
  1479  000078  0E00               	movlw	0
  1480  00007A  6E05               	movwf	___llmod@divisor,c
  1481  00007C  0EE1               	movlw	225
  1482  00007E  6E06               	movwf	___llmod@divisor+1,c
  1483  000080  0EF5               	movlw	245
  1484  000082  6E07               	movwf	___llmod@divisor+2,c
  1485  000084  0E05               	movlw	5
  1486  000086  6E08               	movwf	___llmod@divisor+3,c
  1487  000088  ECDE  F009         	call	___llmod	;wreg free
  1488  00008C  C001  F026         	movff	?___llmod,_Timer_Cyc
  1489  000090  C002  F027         	movff	?___llmod+1,_Timer_Cyc+1
  1490  000094  C003  F028         	movff	?___llmod+2,_Timer_Cyc+2
  1491  000098  C004  F029         	movff	?___llmod+3,_Timer_Cyc+3
  1492                           
  1493                           ;My_Timer.c: 109: IR2184_Timer = (IR2184_Timer+1) % 10000;
  1494  00009C  0E01               	movlw	1
  1495  00009E  242A               	addwf	_IR2184_Timer,w,c
  1496  0000A0  6E01               	movwf	___lwmod@dividend,c
  1497  0000A2  0E00               	movlw	0
  1498  0000A4  202B               	addwfc	_IR2184_Timer+1,w,c
  1499  0000A6  6E02               	movwf	___lwmod@dividend+1,c
  1500  0000A8  0E27               	movlw	39
  1501  0000AA  6E04               	movwf	___lwmod@divisor+1,c
  1502  0000AC  0E10               	movlw	16
  1503  0000AE  6E03               	movwf	___lwmod@divisor,c
  1504  0000B0  ECA8  F00A         	call	___lwmod	;wreg free
  1505  0000B4  C001  F02A         	movff	?___lwmod,_IR2184_Timer
  1506  0000B8  C002  F02B         	movff	?___lwmod+1,_IR2184_Timer+1
  1507                           
  1508                           ;My_Timer.c: 110: if( Nix_Flash != 0 ) Nix_Flash --;
  1509  0000BC  5030               	movf	_Nix_Flash,w,c
  1510  0000BE  B4D8               	btfsc	status,2,c
  1511  0000C0  D002               	goto	i2l1800
  1512  0000C2  0630               	decf	_Nix_Flash,f,c
  1513  0000C4  D000               	goto	i2l1800
  1514  0000C6                     i2l1800:
  1515                           
  1516                           ;My_Timer.c: 113: if(Timer_Cyc%6 == 0) Manage_Message();
  1517  0000C6  C026  F001         	movff	_Timer_Cyc,___llmod@dividend
  1518  0000CA  C027  F002         	movff	_Timer_Cyc+1,___llmod@dividend+1
  1519  0000CE  C028  F003         	movff	_Timer_Cyc+2,___llmod@dividend+2
  1520  0000D2  C029  F004         	movff	_Timer_Cyc+3,___llmod@dividend+3
  1521  0000D6  0E06               	movlw	6
  1522  0000D8  6E05               	movwf	___llmod@divisor,c
  1523  0000DA  0E00               	movlw	0
  1524  0000DC  6E06               	movwf	___llmod@divisor+1,c
  1525  0000DE  0E00               	movlw	0
  1526  0000E0  6E07               	movwf	___llmod@divisor+2,c
  1527  0000E2  0E00               	movlw	0
  1528  0000E4  6E08               	movwf	___llmod@divisor+3,c
  1529  0000E6  ECDE  F009         	call	___llmod	;wreg free
  1530  0000EA  5001               	movf	?___llmod,w,c
  1531  0000EC  1002               	iorwf	?___llmod+1,w,c
  1532  0000EE  1003               	iorwf	?___llmod+2,w,c
  1533  0000F0  1004               	iorwf	?___llmod+3,w,c
  1534  0000F2  A4D8               	btfss	status,2,c
  1535  0000F4  D003               	goto	i2l1804
  1536  0000F6  EC1C  F009         	call	_Manage_Message	;wreg free
  1537  0000FA  D000               	goto	i2l1804
  1538  0000FC                     i2l1804:
  1539                           
  1540                           ;My_Timer.c: 116: if(Nix_Flash%30 == 0) Show_Result();
  1541  0000FC  C030  F001         	movff	_Nix_Flash,___awmod@dividend
  1542  000100  6A02               	clrf	___awmod@dividend+1,c
  1543  000102  0E00               	movlw	0
  1544  000104  6E04               	movwf	___awmod@divisor+1,c
  1545  000106  0E1E               	movlw	30
  1546  000108  6E03               	movwf	___awmod@divisor,c
  1547  00010A  EC62  F009         	call	___awmod	;wreg free
  1548  00010E  5001               	movf	?___awmod,w,c
  1549  000110  1002               	iorwf	?___awmod+1,w,c
  1550  000112  A4D8               	btfss	status,2,c
  1551  000114  D003               	goto	i2l1808
  1552  000116  ECF2  F00B         	call	_Show_Result	;wreg free
  1553  00011A  D000               	goto	i2l1808
  1554  00011C                     i2l1808:
  1555                           
  1556                           ;My_Timer.c: 119: Key_FSM_Scan();
  1557  00011C  ECBF  F00B         	call	_Key_FSM_Scan	;wreg free
  1558  000120  D000               	goto	i2l123
  1559  000122                     i2l123:
  1560  000122  C01C  FFF5         	movff	??_Sys_Cyc+13,tablat
  1561  000126  C01B  FFF8         	movff	??_Sys_Cyc+12,tblptru
  1562  00012A  C01A  FFF7         	movff	??_Sys_Cyc+11,tblptrh
  1563  00012E  C019  FFF6         	movff	??_Sys_Cyc+10,tblptrl
  1564  000132  C018  FFF4         	movff	??_Sys_Cyc+9,prodh
  1565  000136  C017  FFF3         	movff	??_Sys_Cyc+8,prodl
  1566  00013A  C016  FFDA         	movff	??_Sys_Cyc+7,fsr2h
  1567  00013E  C015  FFD9         	movff	??_Sys_Cyc+6,fsr2l
  1568  000142  C014  FFE2         	movff	??_Sys_Cyc+5,fsr1h
  1569  000146  C013  FFE1         	movff	??_Sys_Cyc+4,fsr1l
  1570  00014A  C012  FFEA         	movff	??_Sys_Cyc+3,fsr0h
  1571  00014E  C011  FFE9         	movff	??_Sys_Cyc+2,fsr0l
  1572  000152  C010  FFFB         	movff	??_Sys_Cyc+1,pclatu
  1573  000156  C00F  FFFA         	movff	??_Sys_Cyc,pclath
  1574  00015A  0011               	retfie		f
  1575  00015C                     __end_of_Sys_Cyc:
  1576                           	opt stack 0
  1577                           pclatu	equ	0xFFB
  1578                           pclath	equ	0xFFA
  1579                           tblptru	equ	0xFF8
  1580                           tblptrh	equ	0xFF7
  1581                           tblptrl	equ	0xFF6
  1582                           tablat	equ	0xFF5
  1583                           prodh	equ	0xFF4
  1584                           prodl	equ	0xFF3
  1585                           intcon	equ	0xFF2
  1586                           postinc0	equ	0xFEE
  1587                           fsr0h	equ	0xFEA
  1588                           fsr0l	equ	0xFE9
  1589                           wreg	equ	0xFE8
  1590                           fsr1h	equ	0xFE2
  1591                           fsr1l	equ	0xFE1
  1592                           indf2	equ	0xFDF
  1593                           fsr2h	equ	0xFDA
  1594                           fsr2l	equ	0xFD9
  1595                           status	equ	0xFD8
  1596                           
  1597 ;; *************** function i2_SetTimer0 *****************
  1598 ;; Defined at:
  1599 ;;		line 81 in file "_01_USER/My_Timer.c"
  1600 ;; Parameters:    Size  Location     Type
  1601 ;;  _tmr            2    0[COMRAM] unsigned int 
  1602 ;; Auto vars:     Size  Location     Type
  1603 ;;		None
  1604 ;; Return value:  Size  Location     Type
  1605 ;;		None               void
  1606 ;; Registers used:
  1607 ;;		wreg, status,2, status,0
  1608 ;; Tracked objects:
  1609 ;;		On entry : 0/0
  1610 ;;		On exit  : 0/0
  1611 ;;		Unchanged: 0/0
  1612 ;; Data sizes:     COMRAM   BANK0   BANK1   BANK2   BANK3   BANK4   BANK5   BANK6   BANK7   BANK8   BANK9  BANK10  BANK1
      +1  BANK12  BANK13  BANK14  BANK15
  1613 ;;      Params:         2       0       0       0       0       0       0       0       0       0       0       0       
      +0       0       0       0       0
  1614 ;;      Locals:         0       0       0       0       0       0       0       0       0       0       0       0       
      +0       0       0       0       0
  1615 ;;      Temps:          2       0       0       0       0       0       0       0       0       0       0       0       
      +0       0       0       0       0
  1616 ;;      Totals:         4       0       0       0       0       0       0       0       0       0       0       0       
      +0       0       0       0       0
  1617 ;;Total ram usage:        4 bytes
  1618 ;; Hardware stack levels used:    1
  1619 ;; This function calls:
  1620 ;;		Nothing
  1621 ;; This function is called by:
  1622 ;;		_Sys_Cyc
  1623 ;; This function uses a non-reentrant model
  1624 ;;
  1625                           
  1626                           	psect	text13
  1627  0016C2                     __ptext13:
  1628                           	opt stack 0
  1629  0016C2                     i2_SetTimer0:
  1630                           	opt stack 26
  1631                           
  1632                           ;My_Timer.c: 84: _tmr=0xffff-_tmr;
  1633                           
  1634                           ;incstack = 0
  1635  0016C2  C001  F003         	movff	i2SetTimer0@_tmr,??i2_SetTimer0
  1636  0016C6  C002  F004         	movff	i2SetTimer0@_tmr+1,??i2_SetTimer0+1
  1637  0016CA  1E03               	comf	??i2_SetTimer0,f,c
  1638  0016CC  1E04               	comf	??i2_SetTimer0+1,f,c
  1639  0016CE  4A03               	infsnz	??i2_SetTimer0,f,c
  1640  0016D0  2A04               	incf	??i2_SetTimer0+1,f,c
  1641  0016D2  0EFF               	movlw	255
  1642  0016D4  2403               	addwf	??i2_SetTimer0,w,c
  1643  0016D6  6E01               	movwf	i2SetTimer0@_tmr,c
  1644  0016D8  0EFF               	movlw	255
  1645  0016DA  2004               	addwfc	??i2_SetTimer0+1,w,c
  1646  0016DC  6E02               	movwf	i2SetTimer0@_tmr+1,c
  1647                           
  1648                           ;My_Timer.c: 85: TMR0H = _tmr/256;
  1649  0016DE  5002               	movf	i2SetTimer0@_tmr+1,w,c
  1650  0016E0  6ED7               	movwf	4055,c	;volatile
  1651                           
  1652                           ;My_Timer.c: 86: TMR0L = _tmr%256;
  1653  0016E2  C001  FFD6         	movff	i2SetTimer0@_tmr,4054	;volatile
  1654                           
  1655                           ;My_Timer.c: 87: TMR0IF = 0;
  1656  0016E6  94F2               	bcf	intcon,2,c	;volatile
  1657  0016E8  0012               	return		;funcret
  1658  0016EA                     __end_ofi2_SetTimer0:
  1659                           	opt stack 0
  1660                           pclatu	equ	0xFFB
  1661                           pclath	equ	0xFFA
  1662                           tblptru	equ	0xFF8
  1663                           tblptrh	equ	0xFF7
  1664                           tblptrl	equ	0xFF6
  1665                           tablat	equ	0xFF5
  1666                           prodh	equ	0xFF4
  1667                           prodl	equ	0xFF3
  1668                           intcon	equ	0xFF2
  1669                           postinc0	equ	0xFEE
  1670                           fsr0h	equ	0xFEA
  1671                           fsr0l	equ	0xFE9
  1672                           wreg	equ	0xFE8
  1673                           fsr1h	equ	0xFE2
  1674                           fsr1l	equ	0xFE1
  1675                           indf2	equ	0xFDF
  1676                           fsr2h	equ	0xFDA
  1677                           fsr2l	equ	0xFD9
  1678                           status	equ	0xFD8
  1679                           
  1680 ;; *************** function ___lwmod *****************
  1681 ;; Defined at:
  1682 ;;		line 8 in file "F:\Program Files (x86)\Microchip\xc8\v1.34\sources\common\lwmod.c"
  1683 ;; Parameters:    Size  Location     Type
  1684 ;;  dividend        2    0[COMRAM] unsigned int 
  1685 ;;  divisor         2    2[COMRAM] unsigned int 
  1686 ;; Auto vars:     Size  Location     Type
  1687 ;;  counter         1    4[COMRAM] unsigned char 
  1688 ;; Return value:  Size  Location     Type
  1689 ;;                  2    0[COMRAM] unsigned int 
  1690 ;; Registers used:
  1691 ;;		wreg, status,2, status,0
  1692 ;; Tracked objects:
  1693 ;;		On entry : 0/0
  1694 ;;		On exit  : 0/0
  1695 ;;		Unchanged: 0/0
  1696 ;; Data sizes:     COMRAM   BANK0   BANK1   BANK2   BANK3   BANK4   BANK5   BANK6   BANK7   BANK8   BANK9  BANK10  BANK1
      +1  BANK12  BANK13  BANK14  BANK15
  1697 ;;      Params:         4       0       0       0       0       0       0       0       0       0       0       0       
      +0       0       0       0       0
  1698 ;;      Locals:         1       0       0       0       0       0       0       0       0       0       0       0       
      +0       0       0       0       0
  1699 ;;      Temps:          0       0       0       0       0       0       0       0       0       0       0       0       
      +0       0       0       0       0
  1700 ;;      Totals:         5       0       0       0       0       0       0       0       0       0       0       0       
      +0       0       0       0       0
  1701 ;;Total ram usage:        5 bytes
  1702 ;; Hardware stack levels used:    1
  1703 ;; This function calls:
  1704 ;;		Nothing
  1705 ;; This function is called by:
  1706 ;;		_Sys_Cyc
  1707 ;; This function uses a non-reentrant model
  1708 ;;
  1709                           
  1710                           	psect	text14
  1711  001550                     __ptext14:
  1712                           	opt stack 0
  1713  001550                     ___lwmod:
  1714                           	opt stack 26
  1715                           
  1716                           ;incstack = 0
  1717  001550  5003               	movf	___lwmod@divisor,w,c
  1718  001552  1004               	iorwf	___lwmod@divisor+1,w,c
  1719  001554  B4D8               	btfsc	status,2,c
  1720  001556  D01D               	goto	i2l881
  1721  001558  0E01               	movlw	1
  1722  00155A  6E05               	movwf	___lwmod@counter,c
  1723  00155C  D005               	goto	i2l1758
  1724  00155E                     i2l1756:
  1725  00155E  90D8               	bcf	status,0,c
  1726  001560  3603               	rlcf	___lwmod@divisor,f,c
  1727  001562  3604               	rlcf	___lwmod@divisor+1,f,c
  1728  001564  2A05               	incf	___lwmod@counter,f,c
  1729  001566  D000               	goto	i2l1758
  1730  001568                     i2l1758:
  1731  001568  BE04               	btfsc	___lwmod@divisor+1,7,c
  1732  00156A  D002               	goto	i2l1760
  1733  00156C  D7F8               	goto	i2l1756
  1734  00156E  D000               	goto	i2l1760
  1735  001570                     i2l1760:
  1736  001570  5003               	movf	___lwmod@divisor,w,c
  1737  001572  5C01               	subwf	___lwmod@dividend,w,c
  1738  001574  5004               	movf	___lwmod@divisor+1,w,c
  1739  001576  5802               	subwfb	___lwmod@dividend+1,w,c
  1740  001578  A0D8               	btfss	status,0,c
  1741  00157A  D005               	goto	i2l1764
  1742  00157C  5003               	movf	___lwmod@divisor,w,c
  1743  00157E  5E01               	subwf	___lwmod@dividend,f,c
  1744  001580  5004               	movf	___lwmod@divisor+1,w,c
  1745  001582  5A02               	subwfb	___lwmod@dividend+1,f,c
  1746  001584  D000               	goto	i2l1764
  1747  001586                     i2l1764:
  1748  001586  90D8               	bcf	status,0,c
  1749  001588  3204               	rrcf	___lwmod@divisor+1,f,c
  1750  00158A  3203               	rrcf	___lwmod@divisor,f,c
  1751  00158C  2E05               	decfsz	___lwmod@counter,f,c
  1752  00158E  D7F0               	goto	i2l1760
  1753  001590  D000               	goto	i2l881
  1754  001592                     i2l881:
  1755  001592  C001  F001         	movff	___lwmod@dividend,?___lwmod
  1756  001596  C002  F002         	movff	___lwmod@dividend+1,?___lwmod+1
  1757  00159A  0012               	return		;funcret
  1758  00159C                     __end_of___lwmod:
  1759                           	opt stack 0
  1760                           pclatu	equ	0xFFB
  1761                           pclath	equ	0xFFA
  1762                           tblptru	equ	0xFF8
  1763                           tblptrh	equ	0xFF7
  1764                           tblptrl	equ	0xFF6
  1765                           tablat	equ	0xFF5
  1766                           prodh	equ	0xFF4
  1767                           prodl	equ	0xFF3
  1768                           intcon	equ	0xFF2
  1769                           postinc0	equ	0xFEE
  1770                           fsr0h	equ	0xFEA
  1771                           fsr0l	equ	0xFE9
  1772                           wreg	equ	0xFE8
  1773                           fsr1h	equ	0xFE2
  1774                           fsr1l	equ	0xFE1
  1775                           indf2	equ	0xFDF
  1776                           fsr2h	equ	0xFDA
  1777                           fsr2l	equ	0xFD9
  1778                           status	equ	0xFD8
  1779                           
  1780 ;; *************** function ___llmod *****************
  1781 ;; Defined at:
  1782 ;;		line 8 in file "F:\Program Files (x86)\Microchip\xc8\v1.34\sources\common\llmod.c"
  1783 ;; Parameters:    Size  Location     Type
  1784 ;;  dividend        4    0[COMRAM] unsigned long 
  1785 ;;  divisor         4    4[COMRAM] unsigned long 
  1786 ;; Auto vars:     Size  Location     Type
  1787 ;;  counter         1    8[COMRAM] unsigned char 
  1788 ;; Return value:  Size  Location     Type
  1789 ;;                  4    0[COMRAM] unsigned long 
  1790 ;; Registers used:
  1791 ;;		wreg, status,2, status,0
  1792 ;; Tracked objects:
  1793 ;;		On entry : 0/0
  1794 ;;		On exit  : 0/0
  1795 ;;		Unchanged: 0/0
  1796 ;; Data sizes:     COMRAM   BANK0   BANK1   BANK2   BANK3   BANK4   BANK5   BANK6   BANK7   BANK8   BANK9  BANK10  BANK1
      +1  BANK12  BANK13  BANK14  BANK15
  1797 ;;      Params:         8       0       0       0       0       0       0       0       0       0       0       0       
      +0       0       0       0       0
  1798 ;;      Locals:         1       0       0       0       0       0       0       0       0       0       0       0       
      +0       0       0       0       0
  1799 ;;      Temps:          0       0       0       0       0       0       0       0       0       0       0       0       
      +0       0       0       0       0
  1800 ;;      Totals:         9       0       0       0       0       0       0       0       0       0       0       0       
      +0       0       0       0       0
  1801 ;;Total ram usage:        9 bytes
  1802 ;; Hardware stack levels used:    1
  1803 ;; This function calls:
  1804 ;;		Nothing
  1805 ;; This function is called by:
  1806 ;;		_Sys_Cyc
  1807 ;; This function uses a non-reentrant model
  1808 ;;
  1809                           
  1810                           	psect	text15
  1811  0013BC                     __ptext15:
  1812                           	opt stack 0
  1813  0013BC                     ___llmod:
  1814                           	opt stack 26
  1815                           
  1816                           ;incstack = 0
  1817  0013BC  5005               	movf	___llmod@divisor,w,c
  1818  0013BE  1006               	iorwf	___llmod@divisor+1,w,c
  1819  0013C0  1007               	iorwf	___llmod@divisor+2,w,c
  1820  0013C2  1008               	iorwf	___llmod@divisor+3,w,c
  1821  0013C4  B4D8               	btfsc	status,2,c
  1822  0013C6  D029               	goto	i2l818
  1823  0013C8  0E01               	movlw	1
  1824  0013CA  6E09               	movwf	___llmod@counter,c
  1825  0013CC  D007               	goto	i2l1742
  1826  0013CE                     i2l1740:
  1827  0013CE  90D8               	bcf	status,0,c
  1828  0013D0  3605               	rlcf	___llmod@divisor,f,c
  1829  0013D2  3606               	rlcf	___llmod@divisor+1,f,c
  1830  0013D4  3607               	rlcf	___llmod@divisor+2,f,c
  1831  0013D6  3608               	rlcf	___llmod@divisor+3,f,c
  1832  0013D8  2A09               	incf	___llmod@counter,f,c
  1833  0013DA  D000               	goto	i2l1742
  1834  0013DC                     i2l1742:
  1835  0013DC  BE08               	btfsc	___llmod@divisor+3,7,c
  1836  0013DE  D002               	goto	i2l1744
  1837  0013E0  D7F6               	goto	i2l1740
  1838  0013E2  D000               	goto	i2l1744
  1839  0013E4                     i2l1744:
  1840  0013E4  5005               	movf	___llmod@divisor,w,c
  1841  0013E6  5C01               	subwf	___llmod@dividend,w,c
  1842  0013E8  5006               	movf	___llmod@divisor+1,w,c
  1843  0013EA  5802               	subwfb	___llmod@dividend+1,w,c
  1844  0013EC  5007               	movf	___llmod@divisor+2,w,c
  1845  0013EE  5803               	subwfb	___llmod@dividend+2,w,c
  1846  0013F0  5008               	movf	___llmod@divisor+3,w,c
  1847  0013F2  5804               	subwfb	___llmod@dividend+3,w,c
  1848  0013F4  A0D8               	btfss	status,0,c
  1849  0013F6  D009               	goto	i2l1748
  1850  0013F8  5005               	movf	___llmod@divisor,w,c
  1851  0013FA  5E01               	subwf	___llmod@dividend,f,c
  1852  0013FC  5006               	movf	___llmod@divisor+1,w,c
  1853  0013FE  5A02               	subwfb	___llmod@dividend+1,f,c
  1854  001400  5007               	movf	___llmod@divisor+2,w,c
  1855  001402  5A03               	subwfb	___llmod@dividend+2,f,c
  1856  001404  5008               	movf	___llmod@divisor+3,w,c
  1857  001406  5A04               	subwfb	___llmod@dividend+3,f,c
  1858  001408  D000               	goto	i2l1748
  1859  00140A                     i2l1748:
  1860  00140A  90D8               	bcf	status,0,c
  1861  00140C  3208               	rrcf	___llmod@divisor+3,f,c
  1862  00140E  3207               	rrcf	___llmod@divisor+2,f,c
  1863  001410  3206               	rrcf	___llmod@divisor+1,f,c
  1864  001412  3205               	rrcf	___llmod@divisor,f,c
  1865  001414  2E09               	decfsz	___llmod@counter,f,c
  1866  001416  D7E6               	goto	i2l1744
  1867  001418  D000               	goto	i2l818
  1868  00141A                     i2l818:
  1869  00141A  C001  F001         	movff	___llmod@dividend,?___llmod
  1870  00141E  C002  F002         	movff	___llmod@dividend+1,?___llmod+1
  1871  001422  C003  F003         	movff	___llmod@dividend+2,?___llmod+2
  1872  001426  C004  F004         	movff	___llmod@dividend+3,?___llmod+3
  1873  00142A  0012               	return		;funcret
  1874  00142C                     __end_of___llmod:
  1875                           	opt stack 0
  1876                           pclatu	equ	0xFFB
  1877                           pclath	equ	0xFFA
  1878                           tblptru	equ	0xFF8
  1879                           tblptrh	equ	0xFF7
  1880                           tblptrl	equ	0xFF6
  1881                           tablat	equ	0xFF5
  1882                           prodh	equ	0xFF4
  1883                           prodl	equ	0xFF3
  1884                           intcon	equ	0xFF2
  1885                           postinc0	equ	0xFEE
  1886                           fsr0h	equ	0xFEA
  1887                           fsr0l	equ	0xFE9
  1888                           wreg	equ	0xFE8
  1889                           fsr1h	equ	0xFE2
  1890                           fsr1l	equ	0xFE1
  1891                           indf2	equ	0xFDF
  1892                           fsr2h	equ	0xFDA
  1893                           fsr2l	equ	0xFD9
  1894                           status	equ	0xFD8
  1895                           
  1896 ;; *************** function _Show_Result *****************
  1897 ;; Defined at:
  1898 ;;		line 127 in file "_01_USER/Run.c"
  1899 ;; Parameters:    Size  Location     Type
  1900 ;;		None
  1901 ;; Auto vars:     Size  Location     Type
  1902 ;;		None
  1903 ;; Return value:  Size  Location     Type
  1904 ;;		None               void
  1905 ;; Registers used:
  1906 ;;		wreg, status,2, status,0, tblptrl, tblptrh, tblptru, cstack
  1907 ;; Tracked objects:
  1908 ;;		On entry : 0/0
  1909 ;;		On exit  : 0/0
  1910 ;;		Unchanged: 0/0
  1911 ;; Data sizes:     COMRAM   BANK0   BANK1   BANK2   BANK3   BANK4   BANK5   BANK6   BANK7   BANK8   BANK9  BANK10  BANK1
      +1  BANK12  BANK13  BANK14  BANK15
  1912 ;;      Params:         0       0       0       0       0       0       0       0       0       0       0       0       
      +0       0       0       0       0
  1913 ;;      Locals:         0       0       0       0       0       0       0       0       0       0       0       0       
      +0       0       0       0       0
  1914 ;;      Temps:          0       0       0       0       0       0       0       0       0       0       0       0       
      +0       0       0       0       0
  1915 ;;      Totals:         0       0       0       0       0       0       0       0       0       0       0       0       
      +0       0       0       0       0
  1916 ;;Total ram usage:        0 bytes
  1917 ;; Hardware stack levels used:    1
  1918 ;; Hardware stack levels required when called:    2
  1919 ;; This function calls:
  1920 ;;		_Nixie_ShowNum
  1921 ;; This function is called by:
  1922 ;;		_Sys_Cyc
  1923 ;; This function uses a non-reentrant model
  1924 ;;
  1925                           
  1926                           	psect	text16
  1927  0017E4                     __ptext16:
  1928                           	opt stack 0
  1929  0017E4                     _Show_Result:
  1930                           	opt stack 24
  1931                           
  1932                           ;Run.c: 129: Nixie_ShowNum(IR2184_Num);
  1933                           
  1934                           ;incstack = 0
  1935  0017E4  502F               	movf	_IR2184_Num,w,c
  1936  0017E6  EC4A  F00A         	call	_Nixie_ShowNum
  1937  0017EA  0012               	return		;funcret
  1938  0017EC                     __end_of_Show_Result:
  1939                           	opt stack 0
  1940                           pclatu	equ	0xFFB
  1941                           pclath	equ	0xFFA
  1942                           tblptru	equ	0xFF8
  1943                           tblptrh	equ	0xFF7
  1944                           tblptrl	equ	0xFF6
  1945                           tablat	equ	0xFF5
  1946                           prodh	equ	0xFF4
  1947                           prodl	equ	0xFF3
  1948                           intcon	equ	0xFF2
  1949                           postinc0	equ	0xFEE
  1950                           fsr0h	equ	0xFEA
  1951                           fsr0l	equ	0xFE9
  1952                           wreg	equ	0xFE8
  1953                           fsr1h	equ	0xFE2
  1954                           fsr1l	equ	0xFE1
  1955                           indf2	equ	0xFDF
  1956                           fsr2h	equ	0xFDA
  1957                           fsr2l	equ	0xFD9
  1958                           status	equ	0xFD8
  1959                           
  1960 ;; *************** function _Nixie_ShowNum *****************
  1961 ;; Defined at:
  1962 ;;		line 79 in file "_01_USER/Nixie.c"
  1963 ;; Parameters:    Size  Location     Type
  1964 ;;  _num            1    wreg     unsigned char 
  1965 ;; Auto vars:     Size  Location     Type
  1966 ;;  _num            1    8[COMRAM] unsigned char 
  1967 ;; Return value:  Size  Location     Type
  1968 ;;		None               void
  1969 ;; Registers used:
  1970 ;;		wreg, status,2, status,0, tblptrl, tblptrh, tblptru, cstack
  1971 ;; Tracked objects:
  1972 ;;		On entry : 0/0
  1973 ;;		On exit  : 0/0
  1974 ;;		Unchanged: 0/0
  1975 ;; Data sizes:     COMRAM   BANK0   BANK1   BANK2   BANK3   BANK4   BANK5   BANK6   BANK7   BANK8   BANK9  BANK10  BANK1
      +1  BANK12  BANK13  BANK14  BANK15
  1976 ;;      Params:         0       0       0       0       0       0       0       0       0       0       0       0       
      +0       0       0       0       0
  1977 ;;      Locals:         1       0       0       0       0       0       0       0       0       0       0       0       
      +0       0       0       0       0
  1978 ;;      Temps:          0       0       0       0       0       0       0       0       0       0       0       0       
      +0       0       0       0       0
  1979 ;;      Totals:         1       0       0       0       0       0       0       0       0       0       0       0       
      +0       0       0       0       0
  1980 ;;Total ram usage:        1 bytes
  1981 ;; Hardware stack levels used:    1
  1982 ;; Hardware stack levels required when called:    1
  1983 ;; This function calls:
  1984 ;;		___awdiv
  1985 ;;		___awmod
  1986 ;; This function is called by:
  1987 ;;		_Show_Result
  1988 ;; This function uses a non-reentrant model
  1989 ;;
  1990                           
  1991                           	psect	text17
  1992  001494                     __ptext17:
  1993                           	opt stack 0
  1994  001494                     _Nixie_ShowNum:
  1995                           	opt stack 24
  1996                           
  1997                           ;incstack = 0
  1998                           ;Nixie_ShowNum@_num stored from wreg
  1999  001494  6E09               	movwf	Nixie_ShowNum@_num,c
  2000                           
  2001                           ;Nixie.c: 81: static unsigned char _t = 0;
  2002                           ;Nixie.c: 83: _t = ~_t;
  2003  001496  1E2D               	comf	Nixie_ShowNum@_t,f,c
  2004                           
  2005                           ;Nixie.c: 84: if(_t)
  2006  001498  502D               	movf	Nixie_ShowNum@_t,w,c
  2007  00149A  B4D8               	btfsc	status,2,c
  2008  00149C  D015               	goto	i2l227
  2009                           
  2010                           ;Nixie.c: 85: {
  2011                           ;Nixie.c: 86: RA5 = 1 , RA4 = 0;
  2012  00149E  8A80               	bsf	3968,5,c	;volatile
  2013  0014A0  9880               	bcf	3968,4,c	;volatile
  2014                           
  2015                           ;Nixie.c: 87: PORTC = LED_Number[_num/10];
  2016  0014A2  C009  F001         	movff	Nixie_ShowNum@_num,___awdiv@dividend
  2017  0014A6  6A02               	clrf	___awdiv@dividend+1,c
  2018  0014A8  0E00               	movlw	0
  2019  0014AA  6E04               	movwf	___awdiv@divisor+1,c
  2020  0014AC  0E0A               	movlw	10
  2021  0014AE  6E03               	movwf	___awdiv@divisor,c
  2022  0014B0  ECD1  F008         	call	___awdiv	;wreg free
  2023  0014B4  0E01               	movlw	low _LED_Number
  2024  0014B6  2401               	addwf	?___awdiv,w,c
  2025  0014B8  6EF6               	movwf	tblptrl,c
  2026  0014BA  0E10               	movlw	high _LED_Number
  2027  0014BC  2002               	addwfc	?___awdiv+1,w,c
  2028  0014BE  6EF7               	movwf	tblptrh,c
  2029  0014C0                     	if	0	;There are less than 3 active tblptr bytes
  2030  0014C0                     	endif
  2031  0014C0  0008               	tblrd		*
  2032  0014C2  CFF5 FF82          	movff	tablat,3970	;volatile
  2033                           
  2034                           ;Nixie.c: 88: }
  2035  0014C6  0012               	return	
  2036  0014C8                     i2l227:
  2037                           
  2038                           ;Nixie.c: 89: else
  2039                           ;Nixie.c: 90: {
  2040                           ;Nixie.c: 91: RA4 = 1 , RA5 = 0;
  2041  0014C8  8880               	bsf	3968,4,c	;volatile
  2042  0014CA  9A80               	bcf	3968,5,c	;volatile
  2043                           
  2044                           ;Nixie.c: 92: PORTC = LED_Number[_num%10];
  2045  0014CC  C009  F001         	movff	Nixie_ShowNum@_num,___awmod@dividend
  2046  0014D0  6A02               	clrf	___awmod@dividend+1,c
  2047  0014D2  0E00               	movlw	0
  2048  0014D4  6E04               	movwf	___awmod@divisor+1,c
  2049  0014D6  0E0A               	movlw	10
  2050  0014D8  6E03               	movwf	___awmod@divisor,c
  2051  0014DA  EC62  F009         	call	___awmod	;wreg free
  2052  0014DE  0E01               	movlw	low _LED_Number
  2053  0014E0  2401               	addwf	?___awmod,w,c
  2054  0014E2  6EF6               	movwf	tblptrl,c
  2055  0014E4  0E10               	movlw	high _LED_Number
  2056  0014E6  2002               	addwfc	?___awmod+1,w,c
  2057  0014E8  6EF7               	movwf	tblptrh,c
  2058  0014EA                     	if	0	;There are less than 3 active tblptr bytes
  2059  0014EA                     	endif
  2060  0014EA  0008               	tblrd		*
  2061  0014EC  CFF5 FF82          	movff	tablat,3970	;volatile
  2062  0014F0  0012               	return	
  2063  0014F2  0012               	return		;funcret
  2064  0014F4                     __end_of_Nixie_ShowNum:
  2065                           	opt stack 0
  2066                           pclatu	equ	0xFFB
  2067                           pclath	equ	0xFFA
  2068                           tblptru	equ	0xFF8
  2069                           tblptrh	equ	0xFF7
  2070                           tblptrl	equ	0xFF6
  2071                           tablat	equ	0xFF5
  2072                           prodh	equ	0xFF4
  2073                           prodl	equ	0xFF3
  2074                           intcon	equ	0xFF2
  2075                           postinc0	equ	0xFEE
  2076                           fsr0h	equ	0xFEA
  2077                           fsr0l	equ	0xFE9
  2078                           wreg	equ	0xFE8
  2079                           fsr1h	equ	0xFE2
  2080                           fsr1l	equ	0xFE1
  2081                           indf2	equ	0xFDF
  2082                           fsr2h	equ	0xFDA
  2083                           fsr2l	equ	0xFD9
  2084                           status	equ	0xFD8
  2085                           
  2086 ;; *************** function ___awmod *****************
  2087 ;; Defined at:
  2088 ;;		line 8 in file "F:\Program Files (x86)\Microchip\xc8\v1.34\sources\common\awmod.c"
  2089 ;; Parameters:    Size  Location     Type
  2090 ;;  dividend        2    0[COMRAM] int 
  2091 ;;  divisor         2    2[COMRAM] int 
  2092 ;; Auto vars:     Size  Location     Type
  2093 ;;  sign            1    5[COMRAM] unsigned char 
  2094 ;;  counter         1    4[COMRAM] unsigned char 
  2095 ;; Return value:  Size  Location     Type
  2096 ;;                  2    0[COMRAM] int 
  2097 ;; Registers used:
  2098 ;;		wreg, status,2, status,0
  2099 ;; Tracked objects:
  2100 ;;		On entry : 0/0
  2101 ;;		On exit  : 0/0
  2102 ;;		Unchanged: 0/0
  2103 ;; Data sizes:     COMRAM   BANK0   BANK1   BANK2   BANK3   BANK4   BANK5   BANK6   BANK7   BANK8   BANK9  BANK10  BANK1
      +1  BANK12  BANK13  BANK14  BANK15
  2104 ;;      Params:         4       0       0       0       0       0       0       0       0       0       0       0       
      +0       0       0       0       0
  2105 ;;      Locals:         2       0       0       0       0       0       0       0       0       0       0       0       
      +0       0       0       0       0
  2106 ;;      Temps:          0       0       0       0       0       0       0       0       0       0       0       0       
      +0       0       0       0       0
  2107 ;;      Totals:         6       0       0       0       0       0       0       0       0       0       0       0       
      +0       0       0       0       0
  2108 ;;Total ram usage:        6 bytes
  2109 ;; Hardware stack levels used:    1
  2110 ;; This function calls:
  2111 ;;		Nothing
  2112 ;; This function is called by:
  2113 ;;		_Sys_Cyc
  2114 ;;		_Nixie_ShowNum
  2115 ;; This function uses a non-reentrant model
  2116 ;;
  2117                           
  2118                           	psect	text18
  2119  0012C4                     __ptext18:
  2120                           	opt stack 0
  2121  0012C4                     ___awmod:
  2122                           	opt stack 26
  2123                           
  2124                           ;incstack = 0
  2125  0012C4  0E00               	movlw	0
  2126  0012C6  6E06               	movwf	___awmod@sign,c
  2127  0012C8  AE02               	btfss	___awmod@dividend+1,7,c
  2128  0012CA  D007               	goto	i2l1568
  2129  0012CC  6C01               	negf	___awmod@dividend,c
  2130  0012CE  1E02               	comf	___awmod@dividend+1,f,c
  2131  0012D0  B0D8               	btfsc	status,0,c
  2132  0012D2  2A02               	incf	___awmod@dividend+1,f,c
  2133  0012D4  0E01               	movlw	1
  2134  0012D6  6E06               	movwf	___awmod@sign,c
  2135  0012D8  D000               	goto	i2l1568
  2136  0012DA                     i2l1568:
  2137  0012DA  AE04               	btfss	___awmod@divisor+1,7,c
  2138  0012DC  D005               	goto	i2l1572
  2139  0012DE  6C03               	negf	___awmod@divisor,c
  2140  0012E0  1E04               	comf	___awmod@divisor+1,f,c
  2141  0012E2  B0D8               	btfsc	status,0,c
  2142  0012E4  2A04               	incf	___awmod@divisor+1,f,c
  2143  0012E6  D000               	goto	i2l1572
  2144  0012E8                     i2l1572:
  2145  0012E8  5003               	movf	___awmod@divisor,w,c
  2146  0012EA  1004               	iorwf	___awmod@divisor+1,w,c
  2147  0012EC  B4D8               	btfsc	status,2,c
  2148  0012EE  D01D               	goto	i2l1588
  2149  0012F0  0E01               	movlw	1
  2150  0012F2  6E05               	movwf	___awmod@counter,c
  2151  0012F4  D005               	goto	i2l1578
  2152  0012F6                     i2l1576:
  2153  0012F6  90D8               	bcf	status,0,c
  2154  0012F8  3603               	rlcf	___awmod@divisor,f,c
  2155  0012FA  3604               	rlcf	___awmod@divisor+1,f,c
  2156  0012FC  2A05               	incf	___awmod@counter,f,c
  2157  0012FE  D000               	goto	i2l1578
  2158  001300                     i2l1578:
  2159  001300  BE04               	btfsc	___awmod@divisor+1,7,c
  2160  001302  D002               	goto	i2l1580
  2161  001304  D7F8               	goto	i2l1576
  2162  001306  D000               	goto	i2l1580
  2163  001308                     i2l1580:
  2164  001308  5003               	movf	___awmod@divisor,w,c
  2165  00130A  5C01               	subwf	___awmod@dividend,w,c
  2166  00130C  5004               	movf	___awmod@divisor+1,w,c
  2167  00130E  5802               	subwfb	___awmod@dividend+1,w,c
  2168  001310  A0D8               	btfss	status,0,c
  2169  001312  D005               	goto	i2l1584
  2170  001314  5003               	movf	___awmod@divisor,w,c
  2171  001316  5E01               	subwf	___awmod@dividend,f,c
  2172  001318  5004               	movf	___awmod@divisor+1,w,c
  2173  00131A  5A02               	subwfb	___awmod@dividend+1,f,c
  2174  00131C  D000               	goto	i2l1584
  2175  00131E                     i2l1584:
  2176  00131E  90D8               	bcf	status,0,c
  2177  001320  3204               	rrcf	___awmod@divisor+1,f,c
  2178  001322  3203               	rrcf	___awmod@divisor,f,c
  2179  001324  2E05               	decfsz	___awmod@counter,f,c
  2180  001326  D7F0               	goto	i2l1580
  2181  001328  D000               	goto	i2l1588
  2182  00132A                     i2l1588:
  2183  00132A  5006               	movf	___awmod@sign,w,c
  2184  00132C  B4D8               	btfsc	status,2,c
  2185  00132E  D005               	goto	i2l1592
  2186  001330  6C01               	negf	___awmod@dividend,c
  2187  001332  1E02               	comf	___awmod@dividend+1,f,c
  2188  001334  B0D8               	btfsc	status,0,c
  2189  001336  2A02               	incf	___awmod@dividend+1,f,c
  2190  001338  D000               	goto	i2l1592
  2191  00133A                     i2l1592:
  2192  00133A  C001  F001         	movff	___awmod@dividend,?___awmod
  2193  00133E  C002  F002         	movff	___awmod@dividend+1,?___awmod+1
  2194  001342  0012               	return	
  2195  001344  0012               	return		;funcret
  2196  001346                     __end_of___awmod:
  2197                           	opt stack 0
  2198                           pclatu	equ	0xFFB
  2199                           pclath	equ	0xFFA
  2200                           tblptru	equ	0xFF8
  2201                           tblptrh	equ	0xFF7
  2202                           tblptrl	equ	0xFF6
  2203                           tablat	equ	0xFF5
  2204                           prodh	equ	0xFF4
  2205                           prodl	equ	0xFF3
  2206                           intcon	equ	0xFF2
  2207                           postinc0	equ	0xFEE
  2208                           fsr0h	equ	0xFEA
  2209                           fsr0l	equ	0xFE9
  2210                           wreg	equ	0xFE8
  2211                           fsr1h	equ	0xFE2
  2212                           fsr1l	equ	0xFE1
  2213                           indf2	equ	0xFDF
  2214                           fsr2h	equ	0xFDA
  2215                           fsr2l	equ	0xFD9
  2216                           status	equ	0xFD8
  2217                           
  2218 ;; *************** function ___awdiv *****************
  2219 ;; Defined at:
  2220 ;;		line 8 in file "F:\Program Files (x86)\Microchip\xc8\v1.34\sources\common\awdiv.c"
  2221 ;; Parameters:    Size  Location     Type
  2222 ;;  dividend        2    0[COMRAM] int 
  2223 ;;  divisor         2    2[COMRAM] int 
  2224 ;; Auto vars:     Size  Location     Type
  2225 ;;  quotient        2    6[COMRAM] int 
  2226 ;;  sign            1    5[COMRAM] unsigned char 
  2227 ;;  counter         1    4[COMRAM] unsigned char 
  2228 ;; Return value:  Size  Location     Type
  2229 ;;                  2    0[COMRAM] int 
  2230 ;; Registers used:
  2231 ;;		wreg, status,2, status,0
  2232 ;; Tracked objects:
  2233 ;;		On entry : 0/0
  2234 ;;		On exit  : 0/0
  2235 ;;		Unchanged: 0/0
  2236 ;; Data sizes:     COMRAM   BANK0   BANK1   BANK2   BANK3   BANK4   BANK5   BANK6   BANK7   BANK8   BANK9  BANK10  BANK1
      +1  BANK12  BANK13  BANK14  BANK15
  2237 ;;      Params:         4       0       0       0       0       0       0       0       0       0       0       0       
      +0       0       0       0       0
  2238 ;;      Locals:         4       0       0       0       0       0       0       0       0       0       0       0       
      +0       0       0       0       0
  2239 ;;      Temps:          0       0       0       0       0       0       0       0       0       0       0       0       
      +0       0       0       0       0
  2240 ;;      Totals:         8       0       0       0       0       0       0       0       0       0       0       0       
      +0       0       0       0       0
  2241 ;;Total ram usage:        8 bytes
  2242 ;; Hardware stack levels used:    1
  2243 ;; This function calls:
  2244 ;;		Nothing
  2245 ;; This function is called by:
  2246 ;;		_Nixie_ShowNum
  2247 ;; This function uses a non-reentrant model
  2248 ;;
  2249                           
  2250                           	psect	text19
  2251  0011A2                     __ptext19:
  2252                           	opt stack 0
  2253  0011A2                     ___awdiv:
  2254                           	opt stack 24
  2255                           
  2256                           ;incstack = 0
  2257  0011A2  0E00               	movlw	0
  2258  0011A4  6E06               	movwf	___awdiv@sign,c
  2259  0011A6  AE04               	btfss	___awdiv@divisor+1,7,c
  2260  0011A8  D007               	goto	i2l1524
  2261  0011AA  6C03               	negf	___awdiv@divisor,c
  2262  0011AC  1E04               	comf	___awdiv@divisor+1,f,c
  2263  0011AE  B0D8               	btfsc	status,0,c
  2264  0011B0  2A04               	incf	___awdiv@divisor+1,f,c
  2265  0011B2  0E01               	movlw	1
  2266  0011B4  6E06               	movwf	___awdiv@sign,c
  2267  0011B6  D000               	goto	i2l1524
  2268  0011B8                     i2l1524:
  2269  0011B8  AE02               	btfss	___awdiv@dividend+1,7,c
  2270  0011BA  D007               	goto	i2l1530
  2271  0011BC  6C01               	negf	___awdiv@dividend,c
  2272  0011BE  1E02               	comf	___awdiv@dividend+1,f,c
  2273  0011C0  B0D8               	btfsc	status,0,c
  2274  0011C2  2A02               	incf	___awdiv@dividend+1,f,c
  2275  0011C4  0E01               	movlw	1
  2276  0011C6  1A06               	xorwf	___awdiv@sign,f,c
  2277  0011C8  D000               	goto	i2l1530
  2278  0011CA                     i2l1530:
  2279  0011CA  0E00               	movlw	0
  2280  0011CC  6E08               	movwf	___awdiv@quotient+1,c
  2281  0011CE  0E00               	movlw	0
  2282  0011D0  6E07               	movwf	___awdiv@quotient,c
  2283  0011D2  5003               	movf	___awdiv@divisor,w,c
  2284  0011D4  1004               	iorwf	___awdiv@divisor+1,w,c
  2285  0011D6  B4D8               	btfsc	status,2,c
  2286  0011D8  D021               	goto	i2l1552
  2287  0011DA  0E01               	movlw	1
  2288  0011DC  6E05               	movwf	___awdiv@counter,c
  2289  0011DE  D005               	goto	i2l1538
  2290  0011E0                     i2l1536:
  2291  0011E0  90D8               	bcf	status,0,c
  2292  0011E2  3603               	rlcf	___awdiv@divisor,f,c
  2293  0011E4  3604               	rlcf	___awdiv@divisor+1,f,c
  2294  0011E6  2A05               	incf	___awdiv@counter,f,c
  2295  0011E8  D000               	goto	i2l1538
  2296  0011EA                     i2l1538:
  2297  0011EA  BE04               	btfsc	___awdiv@divisor+1,7,c
  2298  0011EC  D002               	goto	i2l1540
  2299  0011EE  D7F8               	goto	i2l1536
  2300  0011F0  D000               	goto	i2l1540
  2301  0011F2                     i2l1540:
  2302  0011F2  90D8               	bcf	status,0,c
  2303  0011F4  3607               	rlcf	___awdiv@quotient,f,c
  2304  0011F6  3608               	rlcf	___awdiv@quotient+1,f,c
  2305  0011F8  5003               	movf	___awdiv@divisor,w,c
  2306  0011FA  5C01               	subwf	___awdiv@dividend,w,c
  2307  0011FC  5004               	movf	___awdiv@divisor+1,w,c
  2308  0011FE  5802               	subwfb	___awdiv@dividend+1,w,c
  2309  001200  A0D8               	btfss	status,0,c
  2310  001202  D006               	goto	i2l1548
  2311  001204  5003               	movf	___awdiv@divisor,w,c
  2312  001206  5E01               	subwf	___awdiv@dividend,f,c
  2313  001208  5004               	movf	___awdiv@divisor+1,w,c
  2314  00120A  5A02               	subwfb	___awdiv@dividend+1,f,c
  2315  00120C  8007               	bsf	___awdiv@quotient,0,c
  2316  00120E  D000               	goto	i2l1548
  2317  001210                     i2l1548:
  2318  001210  90D8               	bcf	status,0,c
  2319  001212  3204               	rrcf	___awdiv@divisor+1,f,c
  2320  001214  3203               	rrcf	___awdiv@divisor,f,c
  2321  001216  2E05               	decfsz	___awdiv@counter,f,c
  2322  001218  D7EC               	goto	i2l1540
  2323  00121A  D000               	goto	i2l1552
  2324  00121C                     i2l1552:
  2325  00121C  5006               	movf	___awdiv@sign,w,c
  2326  00121E  B4D8               	btfsc	status,2,c
  2327  001220  D005               	goto	i2l1556
  2328  001222  6C07               	negf	___awdiv@quotient,c
  2329  001224  1E08               	comf	___awdiv@quotient+1,f,c
  2330  001226  B0D8               	btfsc	status,0,c
  2331  001228  2A08               	incf	___awdiv@quotient+1,f,c
  2332  00122A  D000               	goto	i2l1556
  2333  00122C                     i2l1556:
  2334  00122C  C007  F001         	movff	___awdiv@quotient,?___awdiv
  2335  001230  C008  F002         	movff	___awdiv@quotient+1,?___awdiv+1
  2336  001234  0012               	return	
  2337  001236  0012               	return		;funcret
  2338  001238                     __end_of___awdiv:
  2339                           	opt stack 0
  2340                           pclatu	equ	0xFFB
  2341                           pclath	equ	0xFFA
  2342                           tblptru	equ	0xFF8
  2343                           tblptrh	equ	0xFF7
  2344                           tblptrl	equ	0xFF6
  2345                           tablat	equ	0xFF5
  2346                           prodh	equ	0xFF4
  2347                           prodl	equ	0xFF3
  2348                           intcon	equ	0xFF2
  2349                           postinc0	equ	0xFEE
  2350                           fsr0h	equ	0xFEA
  2351                           fsr0l	equ	0xFE9
  2352                           wreg	equ	0xFE8
  2353                           fsr1h	equ	0xFE2
  2354                           fsr1l	equ	0xFE1
  2355                           indf2	equ	0xFDF
  2356                           fsr2h	equ	0xFDA
  2357                           fsr2l	equ	0xFD9
  2358                           status	equ	0xFD8
  2359                           
  2360 ;; *************** function _Manage_Message *****************
  2361 ;; Defined at:
  2362 ;;		line 50 in file "_01_USER/Run.c"
  2363 ;; Parameters:    Size  Location     Type
  2364 ;;		None
  2365 ;; Auto vars:     Size  Location     Type
  2366 ;;  _databuff       1   13[COMRAM] unsigned char [1]
  2367 ;; Return value:  Size  Location     Type
  2368 ;;		None               void
  2369 ;; Registers used:
  2370 ;;		wreg, fsr1l, fsr1h, fsr2l, fsr2h, status,2, status,0, prodl, prodh, cstack
  2371 ;; Tracked objects:
  2372 ;;		On entry : 0/0
  2373 ;;		On exit  : 0/0
  2374 ;;		Unchanged: 0/0
  2375 ;; Data sizes:     COMRAM   BANK0   BANK1   BANK2   BANK3   BANK4   BANK5   BANK6   BANK7   BANK8   BANK9  BANK10  BANK1
      +1  BANK12  BANK13  BANK14  BANK15
  2376 ;;      Params:         0       0       0       0       0       0       0       0       0       0       0       0       
      +0       0       0       0       0
  2377 ;;      Locals:         1       0       0       0       0       0       0       0       0       0       0       0       
      +0       0       0       0       0
  2378 ;;      Temps:          0       0       0       0       0       0       0       0       0       0       0       0       
      +0       0       0       0       0
  2379 ;;      Totals:         1       0       0       0       0       0       0       0       0       0       0       0       
      +0       0       0       0       0
  2380 ;;Total ram usage:        1 bytes
  2381 ;; Hardware stack levels used:    1
  2382 ;; Hardware stack levels required when called:    2
  2383 ;; This function calls:
  2384 ;;		_EEPROM_Writers
  2385 ;;		_Key_FSM_Read
  2386 ;;		_Key_FSM_Reset
  2387 ;; This function is called by:
  2388 ;;		_Sys_Cyc
  2389 ;; This function uses a non-reentrant model
  2390 ;;
  2391                           
  2392                           	psect	text20
  2393  001238                     __ptext20:
  2394                           	opt stack 0
  2395  001238                     _Manage_Message:
  2396                           	opt stack 24
  2397                           
  2398                           ;Run.c: 52: unsigned char _databuff[1] = {0};
  2399                           
  2400                           ;incstack = 0
  2401  001238  C02C  F00E         	movff	Manage_Message@F8484,Manage_Message@_databuff
  2402                           
  2403                           ;Run.c: 54: Key_FSM_Read();
  2404  00123C  EC06  F008         	call	_Key_FSM_Read	;wreg free
  2405                           
  2406                           ;Run.c: 56: if ( Local_Key_User.key_group == ((0x01<<0)|(0x01<<1)) && Local_Key_User.key
      +                          _group_state == KEY_short )
  2407  001240  0E03               	movlw	3
  2408  001242  183C               	xorwf	_Local_Key_User+1,w,c	;volatile
  2409  001244  A4D8               	btfss	status,2,c
  2410  001246  D016               	goto	i2l1706
  2411  001248  043D               	decf	_Local_Key_User+2,w,c	;volatile
  2412  00124A  A4D8               	btfss	status,2,c
  2413  00124C  D013               	goto	i2l1706
  2414                           
  2415                           ;Run.c: 57: {
  2416                           ;Run.c: 58: _databuff[0] = IR2184_Num ;
  2417  00124E  C02F  F00E         	movff	_IR2184_Num,Manage_Message@_databuff
  2418                           
  2419                           ;Run.c: 59: EEPROM_Writers(0x10,_databuff,1);
  2420  001252  0E00               	movlw	0
  2421  001254  6E06               	movwf	EEPROM_Writers@Addr+1,c
  2422  001256  0E10               	movlw	16
  2423  001258  6E05               	movwf	EEPROM_Writers@Addr,c
  2424  00125A  0E0E               	movlw	low Manage_Message@_databuff
  2425  00125C  6E07               	movwf	EEPROM_Writers@DateBuff,c
  2426  00125E  0E00               	movlw	high Manage_Message@_databuff
  2427  001260  6E08               	movwf	EEPROM_Writers@DateBuff+1,c
  2428  001262  0E00               	movlw	0
  2429  001264  6E0A               	movwf	EEPROM_Writers@length+1,c
  2430  001266  0E01               	movlw	1
  2431  001268  6E09               	movwf	EEPROM_Writers@length,c
  2432  00126A  EC7A  F00A         	call	_EEPROM_Writers	;wreg free
  2433                           
  2434                           ;Run.c: 60: Nix_Flash = 130;
  2435  00126E  0E82               	movlw	130
  2436  001270  6E30               	movwf	_Nix_Flash,c
  2437  001272  D000               	goto	i2l1706
  2438  001274                     i2l1706:
  2439                           
  2440                           ;Run.c: 61: }
  2441                           ;Run.c: 64: if (Local_Key_User.key_state[1-1] == KEY_short) IR2184_Num -- ;
  2442  001274  0442               	decf	_Local_Key_User+7,w,c	;volatile
  2443  001276  A4D8               	btfss	status,2,c
  2444  001278  D002               	goto	i2l1710
  2445  00127A  062F               	decf	_IR2184_Num,f,c
  2446  00127C  D000               	goto	i2l1710
  2447  00127E                     i2l1710:
  2448                           
  2449                           ;Run.c: 65: if (Local_Key_User.key_state[1-1] == KEY_hold) IR2184_Num -- ;
  2450  00127E  0E03               	movlw	3
  2451  001280  1842               	xorwf	_Local_Key_User+7,w,c	;volatile
  2452  001282  A4D8               	btfss	status,2,c
  2453  001284  D002               	goto	i2l1714
  2454  001286  062F               	decf	_IR2184_Num,f,c
  2455  001288  D000               	goto	i2l1714
  2456  00128A                     i2l1714:
  2457                           
  2458                           ;Run.c: 68: if (Local_Key_User.key_state[2-1] == KEY_short) IR2184_Num ++ ;
  2459  00128A  0443               	decf	_Local_Key_User+8,w,c	;volatile
  2460  00128C  A4D8               	btfss	status,2,c
  2461  00128E  D002               	goto	i2l1718
  2462  001290  2A2F               	incf	_IR2184_Num,f,c
  2463  001292  D000               	goto	i2l1718
  2464  001294                     i2l1718:
  2465                           
  2466                           ;Run.c: 69: if (Local_Key_User.key_state[2-1] == KEY_hold) IR2184_Num ++ ;
  2467  001294  0E03               	movlw	3
  2468  001296  1843               	xorwf	_Local_Key_User+8,w,c	;volatile
  2469  001298  A4D8               	btfss	status,2,c
  2470  00129A  D002               	goto	i2l1722
  2471  00129C  2A2F               	incf	_IR2184_Num,f,c
  2472  00129E  D000               	goto	i2l1722
  2473  0012A0                     i2l1722:
  2474                           
  2475                           ;Run.c: 71: if(IR2184_Num > 99 && IR2184_Num <200 ) IR2184_Num = 0;
  2476  0012A0  0E63               	movlw	99
  2477  0012A2  642F               	cpfsgt	_IR2184_Num,c
  2478  0012A4  D006               	goto	i2l1728
  2479  0012A6  0EC8               	movlw	200
  2480  0012A8  602F               	cpfslt	_IR2184_Num,c
  2481  0012AA  D003               	goto	i2l1728
  2482  0012AC  0E00               	movlw	0
  2483  0012AE  6E2F               	movwf	_IR2184_Num,c
  2484  0012B0  D000               	goto	i2l1728
  2485  0012B2                     i2l1728:
  2486                           
  2487                           ;Run.c: 72: if(IR2184_Num > 200 ) IR2184_Num = 99;
  2488  0012B2  0EC8               	movlw	200
  2489  0012B4  642F               	cpfsgt	_IR2184_Num,c
  2490  0012B6  D003               	goto	i2l1732
  2491  0012B8  0E63               	movlw	99
  2492  0012BA  6E2F               	movwf	_IR2184_Num,c
  2493  0012BC  D000               	goto	i2l1732
  2494  0012BE                     i2l1732:
  2495                           
  2496                           ;Run.c: 74: Key_FSM_Reset();
  2497  0012BE  ECCE  F00A         	call	_Key_FSM_Reset	;wreg free
  2498  0012C2  0012               	return		;funcret
  2499  0012C4                     __end_of_Manage_Message:
  2500                           	opt stack 0
  2501                           pclatu	equ	0xFFB
  2502                           pclath	equ	0xFFA
  2503                           tblptru	equ	0xFF8
  2504                           tblptrh	equ	0xFF7
  2505                           tblptrl	equ	0xFF6
  2506                           tablat	equ	0xFF5
  2507                           prodh	equ	0xFF4
  2508                           prodl	equ	0xFF3
  2509                           intcon	equ	0xFF2
  2510                           postinc0	equ	0xFEE
  2511                           fsr0h	equ	0xFEA
  2512                           fsr0l	equ	0xFE9
  2513                           wreg	equ	0xFE8
  2514                           fsr1h	equ	0xFE2
  2515                           fsr1l	equ	0xFE1
  2516                           indf2	equ	0xFDF
  2517                           fsr2h	equ	0xFDA
  2518                           fsr2l	equ	0xFD9
  2519                           status	equ	0xFD8
  2520                           
  2521 ;; *************** function _Key_FSM_Reset *****************
  2522 ;; Defined at:
  2523 ;;		line 151 in file "_01_USER/Key.c"
  2524 ;; Parameters:    Size  Location     Type
  2525 ;;		None
  2526 ;; Auto vars:     Size  Location     Type
  2527 ;;  t               1    0[COMRAM] unsigned char 
  2528 ;; Return value:  Size  Location     Type
  2529 ;;		None               void
  2530 ;; Registers used:
  2531 ;;		wreg, fsr2l, fsr2h, status,2, status,0, prodl, prodh
  2532 ;; Tracked objects:
  2533 ;;		On entry : 0/0
  2534 ;;		On exit  : 0/0
  2535 ;;		Unchanged: 0/0
  2536 ;; Data sizes:     COMRAM   BANK0   BANK1   BANK2   BANK3   BANK4   BANK5   BANK6   BANK7   BANK8   BANK9  BANK10  BANK1
      +1  BANK12  BANK13  BANK14  BANK15
  2537 ;;      Params:         0       0       0       0       0       0       0       0       0       0       0       0       
      +0       0       0       0       0
  2538 ;;      Locals:         1       0       0       0       0       0       0       0       0       0       0       0       
      +0       0       0       0       0
  2539 ;;      Temps:          0       0       0       0       0       0       0       0       0       0       0       0       
      +0       0       0       0       0
  2540 ;;      Totals:         1       0       0       0       0       0       0       0       0       0       0       0       
      +0       0       0       0       0
  2541 ;;Total ram usage:        1 bytes
  2542 ;; Hardware stack levels used:    1
  2543 ;; This function calls:
  2544 ;;		Nothing
  2545 ;; This function is called by:
  2546 ;;		_Manage_Message
  2547 ;; This function uses a non-reentrant model
  2548 ;;
  2549                           
  2550                           	psect	text21
  2551  00159C                     __ptext21:
  2552                           	opt stack 0
  2553  00159C                     _Key_FSM_Reset:
  2554                           	opt stack 25
  2555                           
  2556                           ;Key.c: 153: unsigned char t;
  2557                           ;Key.c: 154: Local_Key_User.key_BUS = 0x00;
  2558                           
  2559                           ;incstack = 0
  2560  00159C  0E00               	movlw	0
  2561  00159E  6E3B               	movwf	_Local_Key_User,c	;volatile
  2562                           
  2563                           ;Key.c: 155: Local_Key_User.key_group = KEY_default;
  2564  0015A0  0E00               	movlw	0
  2565  0015A2  6E3C               	movwf	_Local_Key_User+1,c	;volatile
  2566                           
  2567                           ;Key.c: 156: t=4;
  2568  0015A4  0E04               	movlw	4
  2569  0015A6  6E01               	movwf	Key_FSM_Reset@t,c
  2570                           
  2571                           ;Key.c: 157: while(t--) Local_Key_User.key_count[t] = 0,
  2572  0015A8  D017               	goto	i2l1164
  2573  0015AA                     i2l1162:
  2574                           
  2575                           ;Key.c: 158: Local_Key_User.key_state[t] = KEY_default;
  2576  0015AA  5001               	movf	Key_FSM_Reset@t,w,c
  2577  0015AC  0D02               	mullw	2
  2578  0015AE  0E3E               	movlw	low (_Local_Key_User+3)
  2579  0015B0  24F3               	addwf	prodl,w,c
  2580  0015B2  6ED9               	movwf	fsr2l,c
  2581  0015B4  0E00               	movlw	high (_Local_Key_User+3)
  2582  0015B6  20F4               	addwfc	prodh,w,c
  2583  0015B8  6EDA               	movwf	fsr2h,c
  2584  0015BA  0E00               	movlw	0
  2585  0015BC  6EDE               	movwf	postinc2,c
  2586  0015BE  0E00               	movlw	0
  2587  0015C0  6EDD               	movwf	postdec2,c
  2588  0015C2  5001               	movf	Key_FSM_Reset@t,w,c
  2589  0015C4  0D01               	mullw	1
  2590  0015C6  0E42               	movlw	low (_Local_Key_User+7)
  2591  0015C8  24F3               	addwf	prodl,w,c
  2592  0015CA  6ED9               	movwf	fsr2l,c
  2593  0015CC  0E00               	movlw	high (_Local_Key_User+7)
  2594  0015CE  20F4               	addwfc	prodh,w,c
  2595  0015D0  6EDA               	movwf	fsr2h,c
  2596  0015D2  0E00               	movlw	0
  2597  0015D4  6EDF               	movwf	indf2,c
  2598  0015D6  D000               	goto	i2l1164
  2599  0015D8                     i2l1164:
  2600  0015D8  0601               	decf	Key_FSM_Reset@t,f,c
  2601  0015DA  2801               	incf	Key_FSM_Reset@t,w,c
  2602  0015DC  A4D8               	btfss	status,2,c
  2603  0015DE  D7E5               	goto	i2l1162
  2604  0015E0  0012               	return		;funcret
  2605  0015E2                     __end_of_Key_FSM_Reset:
  2606                           	opt stack 0
  2607                           pclatu	equ	0xFFB
  2608                           pclath	equ	0xFFA
  2609                           tblptru	equ	0xFF8
  2610                           tblptrh	equ	0xFF7
  2611                           tblptrl	equ	0xFF6
  2612                           tablat	equ	0xFF5
  2613                           prodh	equ	0xFF4
  2614                           prodl	equ	0xFF3
  2615                           intcon	equ	0xFF2
  2616                           postinc0	equ	0xFEE
  2617                           fsr0h	equ	0xFEA
  2618                           fsr0l	equ	0xFE9
  2619                           wreg	equ	0xFE8
  2620                           fsr1h	equ	0xFE2
  2621                           fsr1l	equ	0xFE1
  2622                           indf2	equ	0xFDF
  2623                           postinc2	equ	0xFDE
  2624                           postdec2	equ	0xFDD
  2625                           fsr2h	equ	0xFDA
  2626                           fsr2l	equ	0xFD9
  2627                           status	equ	0xFD8
  2628                           
  2629 ;; *************** function _Key_FSM_Read *****************
  2630 ;; Defined at:
  2631 ;;		line 101 in file "_01_USER/Key.c"
  2632 ;; Parameters:    Size  Location     Type
  2633 ;;		None
  2634 ;; Auto vars:     Size  Location     Type
  2635 ;;  key_num         1    5[COMRAM] unsigned char 
  2636 ;;  key_num_mate    1    4[COMRAM] unsigned char 
  2637 ;; Return value:  Size  Location     Type
  2638 ;;		None               void
  2639 ;; Registers used:
  2640 ;;		wreg, fsr1l, fsr1h, fsr2l, fsr2h, status,2, status,0, prodl, prodh
  2641 ;; Tracked objects:
  2642 ;;		On entry : 0/0
  2643 ;;		On exit  : 0/0
  2644 ;;		Unchanged: 0/0
  2645 ;; Data sizes:     COMRAM   BANK0   BANK1   BANK2   BANK3   BANK4   BANK5   BANK6   BANK7   BANK8   BANK9  BANK10  BANK1
      +1  BANK12  BANK13  BANK14  BANK15
  2646 ;;      Params:         0       0       0       0       0       0       0       0       0       0       0       0       
      +0       0       0       0       0
  2647 ;;      Locals:         2       0       0       0       0       0       0       0       0       0       0       0       
      +0       0       0       0       0
  2648 ;;      Temps:          4       0       0       0       0       0       0       0       0       0       0       0       
      +0       0       0       0       0
  2649 ;;      Totals:         6       0       0       0       0       0       0       0       0       0       0       0       
      +0       0       0       0       0
  2650 ;;Total ram usage:        6 bytes
  2651 ;; Hardware stack levels used:    1
  2652 ;; This function calls:
  2653 ;;		Nothing
  2654 ;; This function is called by:
  2655 ;;		_Manage_Message
  2656 ;; This function uses a non-reentrant model
  2657 ;;
  2658                           
  2659                           	psect	text22
  2660  00100C                     __ptext22:
  2661                           	opt stack 0
  2662  00100C                     _Key_FSM_Read:
  2663                           	opt stack 25
  2664                           
  2665                           ;Key.c: 103: unsigned char key_num = 2,key_num_mate;
  2666                           
  2667                           ;incstack = 0
  2668  00100C  0E02               	movlw	2
  2669  00100E  6E06               	movwf	Key_FSM_Read@key_num,c
  2670                           
  2671                           ;Key.c: 106: while(key_num--)
  2672  001010  D071               	goto	i2l1134
  2673  001012                     i2l1116:
  2674                           
  2675                           ;Key.c: 107: {
  2676                           ;Key.c: 109: if( Local_Key_FSM.key_BUS == 0x00 )
  2677  001012  5032               	movf	_Local_Key_FSM,w,c	;volatile
  2678  001014  A4D8               	btfss	status,2,c
  2679  001016  D04A               	goto	i2l1128
  2680                           
  2681                           ;Key.c: 110: {
  2682                           ;Key.c: 111: if( Local_Key_FSM.key_count[key_num] > 5 )
  2683  001018  5006               	movf	Key_FSM_Read@key_num,w,c
  2684  00101A  0D02               	mullw	2
  2685  00101C  0E35               	movlw	low (_Local_Key_FSM+3)
  2686  00101E  24F3               	addwf	prodl,w,c
  2687  001020  6ED9               	movwf	fsr2l,c
  2688  001022  0E00               	movlw	high (_Local_Key_FSM+3)
  2689  001024  20F4               	addwfc	prodh,w,c
  2690  001026  6EDA               	movwf	fsr2h,c
  2691  001028  0E01               	movlw	1
  2692  00102A  50DB               	movf	plusw2,w,c
  2693  00102C  E104               	bnz	i2u24_40
  2694  00102E  0E06               	movlw	6
  2695  001030  5CDE               	subwf	postinc2,w,c
  2696  001032  A0D8               	btfss	status,0,c
  2697  001034  D024               	goto	i2l1126
  2698  001036                     i2u24_40:
  2699                           
  2700                           ;Key.c: 112: {
  2701                           ;Key.c: 113: if( Local_Key_FSM.key_count[key_num] > 60 )
  2702  001036  5006               	movf	Key_FSM_Read@key_num,w,c
  2703  001038  0D02               	mullw	2
  2704  00103A  0E35               	movlw	low (_Local_Key_FSM+3)
  2705  00103C  24F3               	addwf	prodl,w,c
  2706  00103E  6ED9               	movwf	fsr2l,c
  2707  001040  0E00               	movlw	high (_Local_Key_FSM+3)
  2708  001042  20F4               	addwfc	prodh,w,c
  2709  001044  6EDA               	movwf	fsr2h,c
  2710  001046  0E01               	movlw	1
  2711  001048  50DB               	movf	plusw2,w,c
  2712  00104A  E104               	bnz	i2u25_40
  2713  00104C  0E3D               	movlw	61
  2714  00104E  5CDE               	subwf	postinc2,w,c
  2715  001050  A0D8               	btfss	status,0,c
  2716  001052  D00A               	goto	i2l1124
  2717  001054                     i2u25_40:
  2718                           
  2719                           ;Key.c: 114: Local_Key_User.key_state[key_num] = KEY_long;
  2720  001054  5006               	movf	Key_FSM_Read@key_num,w,c
  2721  001056  0D01               	mullw	1
  2722  001058  0E42               	movlw	low (_Local_Key_User+7)
  2723  00105A  24F3               	addwf	prodl,w,c
  2724  00105C  6ED9               	movwf	fsr2l,c
  2725  00105E  0E00               	movlw	high (_Local_Key_User+7)
  2726  001060  20F4               	addwfc	prodh,w,c
  2727  001062  6EDA               	movwf	fsr2h,c
  2728  001064  0E05               	movlw	5
  2729  001066  D014               	goto	L4
  2730  001068                     i2l1124:
  2731                           
  2732                           ;Key.c: 115: else Local_Key_User.key_state[key_num] = KEY_short;
  2733  001068  5006               	movf	Key_FSM_Read@key_num,w,c
  2734  00106A  0D01               	mullw	1
  2735  00106C  0E42               	movlw	low (_Local_Key_User+7)
  2736  00106E  24F3               	addwf	prodl,w,c
  2737  001070  6ED9               	movwf	fsr2l,c
  2738  001072  0E00               	movlw	high (_Local_Key_User+7)
  2739  001074  20F4               	addwfc	prodh,w,c
  2740  001076  6EDA               	movwf	fsr2h,c
  2741  001078  0E01               	movlw	1
  2742  00107A  6EDF               	movwf	indf2,c
  2743                           
  2744                           ;Key.c: 116: }
  2745  00107C  D00A               	goto	i2l48
  2746  00107E                     i2l1126:
  2747                           
  2748                           ;Key.c: 117: else Local_Key_User.key_state[key_num] = KEY_default;
  2749  00107E  5006               	movf	Key_FSM_Read@key_num,w,c
  2750  001080  0D01               	mullw	1
  2751  001082  0E42               	movlw	low (_Local_Key_User+7)
  2752  001084  24F3               	addwf	prodl,w,c
  2753  001086  6ED9               	movwf	fsr2l,c
  2754  001088  0E00               	movlw	high (_Local_Key_User+7)
  2755  00108A  20F4               	addwfc	prodh,w,c
  2756  00108C  6EDA               	movwf	fsr2h,c
  2757  00108E  0E00               	movlw	0
  2758  001090                     L4:
  2759  001090  6EDF               	movwf	indf2,c
  2760  001092                     i2l48:
  2761                           
  2762                           ;Key.c: 118: Local_Key_FSM.key_count[key_num] = 0;
  2763  001092  5006               	movf	Key_FSM_Read@key_num,w,c
  2764  001094  0D02               	mullw	2
  2765  001096  0E35               	movlw	low (_Local_Key_FSM+3)
  2766  001098  24F3               	addwf	prodl,w,c
  2767  00109A  6ED9               	movwf	fsr2l,c
  2768  00109C  0E00               	movlw	high (_Local_Key_FSM+3)
  2769  00109E  20F4               	addwfc	prodh,w,c
  2770  0010A0  6EDA               	movwf	fsr2h,c
  2771  0010A2  0E00               	movlw	0
  2772  0010A4  6EDE               	movwf	postinc2,c
  2773  0010A6  0E00               	movlw	0
  2774  0010A8  6EDD               	movwf	postdec2,c
  2775                           
  2776                           ;Key.c: 119: }
  2777  0010AA  D024               	goto	i2l1134
  2778  0010AC                     i2l1128:
  2779                           
  2780                           ;Key.c: 121: else if( Local_Key_FSM.key_count[key_num] > 60 )
  2781  0010AC  5006               	movf	Key_FSM_Read@key_num,w,c
  2782  0010AE  0D02               	mullw	2
  2783  0010B0  0E35               	movlw	low (_Local_Key_FSM+3)
  2784  0010B2  24F3               	addwf	prodl,w,c
  2785  0010B4  6ED9               	movwf	fsr2l,c
  2786  0010B6  0E00               	movlw	high (_Local_Key_FSM+3)
  2787  0010B8  20F4               	addwfc	prodh,w,c
  2788  0010BA  6EDA               	movwf	fsr2h,c
  2789  0010BC  0E01               	movlw	1
  2790  0010BE  50DB               	movf	plusw2,w,c
  2791  0010C0  E104               	bnz	i2u26_40
  2792  0010C2  0E3D               	movlw	61
  2793  0010C4  5CDE               	subwf	postinc2,w,c
  2794  0010C6  A0D8               	btfss	status,0,c
  2795  0010C8  D00A               	goto	i2l1132
  2796  0010CA                     i2u26_40:
  2797                           
  2798                           ;Key.c: 122: Local_Key_User.key_state[key_num] = KEY_hold;
  2799  0010CA  5006               	movf	Key_FSM_Read@key_num,w,c
  2800  0010CC  0D01               	mullw	1
  2801  0010CE  0E42               	movlw	low (_Local_Key_User+7)
  2802  0010D0  24F3               	addwf	prodl,w,c
  2803  0010D2  6ED9               	movwf	fsr2l,c
  2804  0010D4  0E00               	movlw	high (_Local_Key_User+7)
  2805  0010D6  20F4               	addwfc	prodh,w,c
  2806  0010D8  6EDA               	movwf	fsr2h,c
  2807  0010DA  0E03               	movlw	3
  2808  0010DC  D009               	goto	L5
  2809  0010DE                     i2l1132:
  2810                           
  2811                           ;Key.c: 125: else Local_Key_User.key_state[key_num] = KEY_busy;
  2812  0010DE  5006               	movf	Key_FSM_Read@key_num,w,c
  2813  0010E0  0D01               	mullw	1
  2814  0010E2  0E42               	movlw	low (_Local_Key_User+7)
  2815  0010E4  24F3               	addwf	prodl,w,c
  2816  0010E6  6ED9               	movwf	fsr2l,c
  2817  0010E8  0E00               	movlw	high (_Local_Key_User+7)
  2818  0010EA  20F4               	addwfc	prodh,w,c
  2819  0010EC  6EDA               	movwf	fsr2h,c
  2820  0010EE  0E04               	movlw	4
  2821  0010F0                     L5:
  2822  0010F0  6EDF               	movwf	indf2,c
  2823  0010F2  D000               	goto	i2l1134
  2824  0010F4                     i2l1134:
  2825  0010F4  0606               	decf	Key_FSM_Read@key_num,f,c
  2826  0010F6  2806               	incf	Key_FSM_Read@key_num,w,c
  2827  0010F8  A4D8               	btfss	status,2,c
  2828  0010FA  D78B               	goto	i2l1116
  2829                           
  2830                           ;Key.c: 126: }
  2831                           ;Key.c: 130: for( key_num = 0;key_num < 2 - 1; key_num ++)
  2832  0010FC  0E00               	movlw	0
  2833  0010FE  6E06               	movwf	Key_FSM_Read@key_num,c
  2834  001100  5006               	movf	Key_FSM_Read@key_num,w,c
  2835  001102  A4D8               	btfss	status,2,c
  2836  001104  0012               	return	
  2837  001106  D001               	goto	i2l1140
  2838  001108  0012               	return	
  2839  00110A                     i2l1140:
  2840                           
  2841                           ;Key.c: 131: for( key_num_mate = key_num+1;key_num_mate < 2 ; key_num_mate ++)
  2842  00110A  2806               	incf	Key_FSM_Read@key_num,w,c
  2843  00110C  6E05               	movwf	Key_FSM_Read@key_num_mate,c
  2844  00110E  0E01               	movlw	1
  2845  001110  6405               	cpfsgt	Key_FSM_Read@key_num_mate,c
  2846  001112  D001               	goto	i2l1144
  2847  001114  D043               	goto	i2l1156
  2848  001116                     i2l1144:
  2849                           
  2850                           ;Key.c: 132: if( Local_Key_User.key_state[key_num] == Local_Key_User.key_state[key_num_m
      +                          ate] )
  2851  001116  5005               	movf	Key_FSM_Read@key_num_mate,w,c
  2852  001118  0D01               	mullw	1
  2853  00111A  0E42               	movlw	low (_Local_Key_User+7)
  2854  00111C  24F3               	addwf	prodl,w,c
  2855  00111E  6ED9               	movwf	fsr2l,c
  2856  001120  0E00               	movlw	high (_Local_Key_User+7)
  2857  001122  20F4               	addwfc	prodh,w,c
  2858  001124  6EDA               	movwf	fsr2h,c
  2859  001126  5006               	movf	Key_FSM_Read@key_num,w,c
  2860  001128  0D01               	mullw	1
  2861  00112A  0E42               	movlw	low (_Local_Key_User+7)
  2862  00112C  24F3               	addwf	prodl,w,c
  2863  00112E  6EE1               	movwf	fsr1l,c
  2864  001130  0E00               	movlw	high (_Local_Key_User+7)
  2865  001132  20F4               	addwfc	prodh,w,c
  2866  001134  6EE2               	movwf	fsr1h,c
  2867  001136  50DE               	movf	postinc2,w,c
  2868  001138  18E6               	xorwf	postinc1,w,c
  2869  00113A  A4D8               	btfss	status,2,c
  2870  00113C  D02D               	goto	i2l1152
  2871                           
  2872                           ;Key.c: 133: if(Local_Key_User.key_state[key_num] != KEY_default)
  2873  00113E  5006               	movf	Key_FSM_Read@key_num,w,c
  2874  001140  0D01               	mullw	1
  2875  001142  0E42               	movlw	low (_Local_Key_User+7)
  2876  001144  24F3               	addwf	prodl,w,c
  2877  001146  6ED9               	movwf	fsr2l,c
  2878  001148  0E00               	movlw	high (_Local_Key_User+7)
  2879  00114A  20F4               	addwfc	prodh,w,c
  2880  00114C  6EDA               	movwf	fsr2h,c
  2881  00114E  50DF               	movf	indf2,w,c
  2882  001150  B4D8               	btfsc	status,2,c
  2883  001152  D022               	goto	i2l1152
  2884                           
  2885                           ;Key.c: 134: {
  2886                           ;Key.c: 135: Local_Key_User.key_group = (0x01 << key_num)|(0x01 << key_num_mate);
  2887  001154  C005  F001         	movff	Key_FSM_Read@key_num_mate,??_Key_FSM_Read
  2888  001158  0E01               	movlw	1
  2889  00115A  6E02               	movwf	(??_Key_FSM_Read+1)& (0+255),c
  2890  00115C  2A01               	incf	??_Key_FSM_Read,f,c
  2891  00115E  D002               	goto	i2u32_44
  2892  001160                     i2u32_45:
  2893  001160  90D8               	bcf	status,0,c
  2894  001162  3602               	rlcf	??_Key_FSM_Read+1,f,c
  2895  001164                     i2u32_44:
  2896  001164  2E01               	decfsz	??_Key_FSM_Read,f,c
  2897  001166  D7FC               	goto	i2u32_45
  2898  001168  C006  F003         	movff	Key_FSM_Read@key_num,??_Key_FSM_Read+2
  2899  00116C  0E01               	movlw	1
  2900  00116E  6E04               	movwf	(??_Key_FSM_Read+3)& (0+255),c
  2901  001170  2A03               	incf	??_Key_FSM_Read+2,f,c
  2902  001172  D002               	goto	i2u33_44
  2903  001174                     i2u33_45:
  2904  001174  90D8               	bcf	status,0,c
  2905  001176  3604               	rlcf	??_Key_FSM_Read+3,f,c
  2906  001178                     i2u33_44:
  2907  001178  2E03               	decfsz	??_Key_FSM_Read+2,f,c
  2908  00117A  D7FC               	goto	i2u33_45
  2909  00117C  5004               	movf	??_Key_FSM_Read+3,w,c
  2910  00117E  1002               	iorwf	??_Key_FSM_Read+1,w,c
  2911  001180  6E3C               	movwf	_Local_Key_User+1,c	;volatile
  2912                           
  2913                           ;Key.c: 136: Local_Key_User.key_group_state = Local_Key_User.key_state[key_num];
  2914  001182  5006               	movf	Key_FSM_Read@key_num,w,c
  2915  001184  0D01               	mullw	1
  2916  001186  0E42               	movlw	low (_Local_Key_User+7)
  2917  001188  24F3               	addwf	prodl,w,c
  2918  00118A  6ED9               	movwf	fsr2l,c
  2919  00118C  0E00               	movlw	high (_Local_Key_User+7)
  2920  00118E  20F4               	addwfc	prodh,w,c
  2921  001190  6EDA               	movwf	fsr2h,c
  2922  001192  50DF               	movf	indf2,w,c
  2923  001194  6E3D               	movwf	_Local_Key_User+2,c	;volatile
  2924  001196  D000               	goto	i2l1152
  2925  001198                     i2l1152:
  2926  001198  2A05               	incf	Key_FSM_Read@key_num_mate,f,c
  2927  00119A  D7B9               	goto	L6
  2928  00119C                     i2l1156:
  2929  00119C  2A06               	incf	Key_FSM_Read@key_num,f,c
  2930  00119E  D7B0               	goto	L7
  2931  0011A0  0012               	return		;funcret
  2932  0011A2                     __end_of_Key_FSM_Read:
  2933                           	opt stack 0
  2934                           pclatu	equ	0xFFB
  2935                           pclath	equ	0xFFA
  2936                           tblptru	equ	0xFF8
  2937                           tblptrh	equ	0xFF7
  2938                           tblptrl	equ	0xFF6
  2939                           tablat	equ	0xFF5
  2940                           prodh	equ	0xFF4
  2941                           prodl	equ	0xFF3
  2942                           intcon	equ	0xFF2
  2943                           postinc0	equ	0xFEE
  2944                           fsr0h	equ	0xFEA
  2945                           fsr0l	equ	0xFE9
  2946                           wreg	equ	0xFE8
  2947                           postinc1	equ	0xFE6
  2948                           fsr1h	equ	0xFE2
  2949                           fsr1l	equ	0xFE1
  2950                           indf2	equ	0xFDF
  2951                           postinc2	equ	0xFDE
  2952                           postdec2	equ	0xFDD
  2953                           plusw2	equ	0xFDB
  2954                           fsr2h	equ	0xFDA
  2955                           fsr2l	equ	0xFD9
  2956                           status	equ	0xFD8
  2957                           
  2958 ;; *************** function _EEPROM_Writers *****************
  2959 ;; Defined at:
  2960 ;;		line 38 in file "_01_USER/EEPROM.c"
  2961 ;; Parameters:    Size  Location     Type
  2962 ;;  Addr            2    4[COMRAM] unsigned int 
  2963 ;;  DateBuff        2    6[COMRAM] PTR unsigned char 
  2964 ;;		 -> Manage_Message@_databuff(1), 
  2965 ;;  length          2    8[COMRAM] unsigned int 
  2966 ;; Auto vars:     Size  Location     Type
  2967 ;;  i               1   12[COMRAM] unsigned char 
  2968 ;; Return value:  Size  Location     Type
  2969 ;;                  1    wreg      unsigned char 
  2970 ;; Registers used:
  2971 ;;		wreg, fsr2l, fsr2h, status,2, status,0, prodl, prodh, cstack
  2972 ;; Tracked objects:
  2973 ;;		On entry : 0/0
  2974 ;;		On exit  : 0/0
  2975 ;;		Unchanged: 0/0
  2976 ;; Data sizes:     COMRAM   BANK0   BANK1   BANK2   BANK3   BANK4   BANK5   BANK6   BANK7   BANK8   BANK9  BANK10  BANK1
      +1  BANK12  BANK13  BANK14  BANK15
  2977 ;;      Params:         6       0       0       0       0       0       0       0       0       0       0       0       
      +0       0       0       0       0
  2978 ;;      Locals:         1       0       0       0       0       0       0       0       0       0       0       0       
      +0       0       0       0       0
  2979 ;;      Temps:          2       0       0       0       0       0       0       0       0       0       0       0       
      +0       0       0       0       0
  2980 ;;      Totals:         9       0       0       0       0       0       0       0       0       0       0       0       
      +0       0       0       0       0
  2981 ;;Total ram usage:        9 bytes
  2982 ;; Hardware stack levels used:    1
  2983 ;; Hardware stack levels required when called:    1
  2984 ;; This function calls:
  2985 ;;		_Write_b_eep
  2986 ;; This function is called by:
  2987 ;;		_Manage_Message
  2988 ;; This function uses a non-reentrant model
  2989 ;;
  2990                           
  2991                           	psect	text23
  2992  0014F4                     __ptext23:
  2993                           	opt stack 0
  2994  0014F4                     _EEPROM_Writers:
  2995                           	opt stack 24
  2996                           
  2997                           ;EEPROM.c: 40: unsigned char i;
  2998                           ;EEPROM.c: 42: if(Addr + length <= 1024)
  2999                           
  3000                           ;incstack = 0
  3001  0014F4  5009               	movf	EEPROM_Writers@length,w,c
  3002  0014F6  2405               	addwf	EEPROM_Writers@Addr,w,c
  3003  0014F8  6E0B               	movwf	??_EEPROM_Writers& (0+255),c
  3004  0014FA  500A               	movf	EEPROM_Writers@length+1,w,c
  3005  0014FC  2006               	addwfc	EEPROM_Writers@Addr+1,w,c
  3006  0014FE  6E0C               	movwf	(??_EEPROM_Writers+1)& (0+255),c
  3007  001500  040B               	decf	??_EEPROM_Writers,w,c
  3008  001502  0E04               	movlw	4
  3009  001504  580C               	subwfb	??_EEPROM_Writers+1,w,c
  3010  001506  B0D8               	btfsc	status,0,c
  3011  001508  0012               	return	
  3012                           
  3013                           ;EEPROM.c: 43: {
  3014                           ;EEPROM.c: 44: for(i=0; i<length; ++i)
  3015  00150A  0E00               	movlw	0
  3016  00150C  6E0D               	movwf	EEPROM_Writers@i,c
  3017  00150E  D014               	goto	i2l1616
  3018  001510                     i2l1612:
  3019                           
  3020                           ;EEPROM.c: 45: Write_b_eep(Addr + i, DateBuff[i]);
  3021  001510  500D               	movf	EEPROM_Writers@i,w,c
  3022  001512  2405               	addwf	EEPROM_Writers@Addr,w,c
  3023  001514  6E01               	movwf	Write_b_eep@badd,c
  3024  001516  0E00               	movlw	0
  3025  001518  2006               	addwfc	EEPROM_Writers@Addr+1,w,c
  3026  00151A  6E02               	movwf	Write_b_eep@badd+1,c
  3027  00151C  500D               	movf	EEPROM_Writers@i,w,c
  3028  00151E  0D01               	mullw	1
  3029  001520  50F3               	movf	prodl,w,c
  3030  001522  2407               	addwf	EEPROM_Writers@DateBuff,w,c
  3031  001524  6ED9               	movwf	fsr2l,c
  3032  001526  50F4               	movf	prodh,w,c
  3033  001528  2008               	addwfc	EEPROM_Writers@DateBuff+1,w,c
  3034  00152A  6EDA               	movwf	fsr2h,c
  3035  00152C  50DF               	movf	indf2,w,c
  3036  00152E  6E03               	movwf	Write_b_eep@bdat,c
  3037  001530  EC11  F00B         	call	_Write_b_eep	;wreg free
  3038  001534  2A0D               	incf	EEPROM_Writers@i,f,c
  3039  001536  D000               	goto	i2l1616
  3040  001538                     i2l1616:
  3041  001538  500D               	movf	EEPROM_Writers@i,w,c
  3042  00153A  6E0B               	movwf	??_EEPROM_Writers& (0+255),c
  3043  00153C  6A0C               	clrf	(??_EEPROM_Writers+1)& (0+255),c
  3044  00153E  5009               	movf	EEPROM_Writers@length,w,c
  3045  001540  5C0B               	subwf	??_EEPROM_Writers,w,c
  3046  001542  500A               	movf	EEPROM_Writers@length+1,w,c
  3047  001544  580C               	subwfb	??_EEPROM_Writers+1,w,c
  3048  001546  B0D8               	btfsc	status,0,c
  3049  001548  0012               	return	
  3050  00154A  D7E2               	goto	i2l1612
  3051                           
  3052                           ;EEPROM.c: 48: else
  3053                           ;EEPROM.c: 49: return 1;
  3054                           ;	Return value of _EEPROM_Writers is never used
  3055                           
  3056                           ;EEPROM.c: 47: }
  3057                           
  3058                           ;EEPROM.c: 46: return 0;
  3059                           ;	Return value of _EEPROM_Writers is never used
  3060  00154C  0012               	return	
  3061  00154E  0012               	return		;funcret
  3062  001550                     __end_of_EEPROM_Writers:
  3063                           	opt stack 0
  3064                           pclatu	equ	0xFFB
  3065                           pclath	equ	0xFFA
  3066                           tblptru	equ	0xFF8
  3067                           tblptrh	equ	0xFF7
  3068                           tblptrl	equ	0xFF6
  3069                           tablat	equ	0xFF5
  3070                           prodh	equ	0xFF4
  3071                           prodl	equ	0xFF3
  3072                           intcon	equ	0xFF2
  3073                           postinc0	equ	0xFEE
  3074                           fsr0h	equ	0xFEA
  3075                           fsr0l	equ	0xFE9
  3076                           wreg	equ	0xFE8
  3077                           postinc1	equ	0xFE6
  3078                           fsr1h	equ	0xFE2
  3079                           fsr1l	equ	0xFE1
  3080                           indf2	equ	0xFDF
  3081                           postinc2	equ	0xFDE
  3082                           postdec2	equ	0xFDD
  3083                           plusw2	equ	0xFDB
  3084                           fsr2h	equ	0xFDA
  3085                           fsr2l	equ	0xFD9
  3086                           status	equ	0xFD8
  3087                           
  3088 ;; *************** function _Write_b_eep *****************
  3089 ;; Defined at:
  3090 ;;		line 49 in file "F:\Program Files (x86)\Microchip\xc8\v1.34\sources\pic18\plib\EEP\write_B.c"
  3091 ;; Parameters:    Size  Location     Type
  3092 ;;  badd            2    0[COMRAM] unsigned int 
  3093 ;;  bdat            1    2[COMRAM] unsigned char 
  3094 ;; Auto vars:     Size  Location     Type
  3095 ;;  GIE_BIT_VAL     1    3[COMRAM] char 
  3096 ;; Return value:  Size  Location     Type
  3097 ;;		None               void
  3098 ;; Registers used:
  3099 ;;		wreg, status,2, status,0
  3100 ;; Tracked objects:
  3101 ;;		On entry : 0/0
  3102 ;;		On exit  : 0/0
  3103 ;;		Unchanged: 0/0
  3104 ;; Data sizes:     COMRAM   BANK0   BANK1   BANK2   BANK3   BANK4   BANK5   BANK6   BANK7   BANK8   BANK9  BANK10  BANK1
      +1  BANK12  BANK13  BANK14  BANK15
  3105 ;;      Params:         3       0       0       0       0       0       0       0       0       0       0       0       
      +0       0       0       0       0
  3106 ;;      Locals:         1       0       0       0       0       0       0       0       0       0       0       0       
      +0       0       0       0       0
  3107 ;;      Temps:          0       0       0       0       0       0       0       0       0       0       0       0       
      +0       0       0       0       0
  3108 ;;      Totals:         4       0       0       0       0       0       0       0       0       0       0       0       
      +0       0       0       0       0
  3109 ;;Total ram usage:        4 bytes
  3110 ;; Hardware stack levels used:    1
  3111 ;; This function calls:
  3112 ;;		Nothing
  3113 ;; This function is called by:
  3114 ;;		_EEPROM_Writers
  3115 ;; This function uses a non-reentrant model
  3116 ;;
  3117                           
  3118                           	psect	text24
  3119  001622                     __ptext24:
  3120                           	opt stack 0
  3121  001622                     _Write_b_eep:
  3122                           	opt stack 24
  3123                           
  3124                           ;incstack = 0
  3125  001622  0E00               	movlw	0
  3126  001624  6E04               	movwf	Write_b_eep@GIE_BIT_VAL,c
  3127  001626  5002               	movf	Write_b_eep@badd+1,w,c
  3128  001628  0B03               	andlw	3
  3129  00162A  6E63               	movwf	3939,c	;volatile
  3130  00162C  C001  FF62         	movff	Write_b_eep@badd,3938	;volatile
  3131  001630  C003  FF61         	movff	Write_b_eep@bdat,3937	;volatile
  3132  001634  9E7F               	bcf	3967,7,c	;volatile
  3133  001636  9C7F               	bcf	3967,6,c	;volatile
  3134  001638  847F               	bsf	3967,2,c	;volatile
  3135  00163A  0E00               	movlw	0
  3136  00163C  BEF2               	btfsc	intcon,7,c	;volatile
  3137  00163E  0E01               	movlw	1
  3138  001640  6E04               	movwf	Write_b_eep@GIE_BIT_VAL,c
  3139  001642  9EF2               	bcf	intcon,7,c	;volatile
  3140  001644  0E55               	movlw	85
  3141  001646  6E7E               	movwf	3966,c	;volatile
  3142  001648  0EAA               	movlw	170
  3143  00164A  6E7E               	movwf	3966,c	;volatile
  3144  00164C  827F               	bsf	3967,1,c	;volatile
  3145  00164E  D000               	goto	i2l347
  3146  001650                     i2l347:
  3147  001650  B27F               	btfsc	3967,1,c	;volatile
  3148  001652  D7FE               	goto	i2l347
  3149  001654  B004               	btfsc	Write_b_eep@GIE_BIT_VAL,0,c
  3150  001656  D002               	bra	i2u87_45
  3151  001658  9EF2               	bcf	intcon,7,c	;volatile
  3152  00165A  D001               	bra	i2u87_46
  3153  00165C                     i2u87_45:
  3154  00165C  8EF2               	bsf	intcon,7,c	;volatile
  3155  00165E                     i2u87_46:
  3156  00165E  947F               	bcf	3967,2,c	;volatile
  3157  001660  0012               	return		;funcret
  3158  001662                     __end_of_Write_b_eep:
  3159                           	opt stack 0
  3160                           pclatu	equ	0xFFB
  3161                           pclath	equ	0xFFA
  3162                           tblptru	equ	0xFF8
  3163                           tblptrh	equ	0xFF7
  3164                           tblptrl	equ	0xFF6
  3165                           tablat	equ	0xFF5
  3166                           prodh	equ	0xFF4
  3167                           prodl	equ	0xFF3
  3168                           intcon	equ	0xFF2
  3169                           postinc0	equ	0xFEE
  3170                           fsr0h	equ	0xFEA
  3171                           fsr0l	equ	0xFE9
  3172                           wreg	equ	0xFE8
  3173                           postinc1	equ	0xFE6
  3174                           fsr1h	equ	0xFE2
  3175                           fsr1l	equ	0xFE1
  3176                           indf2	equ	0xFDF
  3177                           postinc2	equ	0xFDE
  3178                           postdec2	equ	0xFDD
  3179                           plusw2	equ	0xFDB
  3180                           fsr2h	equ	0xFDA
  3181                           fsr2l	equ	0xFD9
  3182                           status	equ	0xFD8
  3183                           
  3184 ;; *************** function _Key_FSM_Scan *****************
  3185 ;; Defined at:
  3186 ;;		line 80 in file "_01_USER/Key.c"
  3187 ;; Parameters:    Size  Location     Type
  3188 ;;		None
  3189 ;; Auto vars:     Size  Location     Type
  3190 ;;		None
  3191 ;; Return value:  Size  Location     Type
  3192 ;;		None               void
  3193 ;; Registers used:
  3194 ;;		wreg, status,2, status,0, cstack
  3195 ;; Tracked objects:
  3196 ;;		On entry : 0/0
  3197 ;;		On exit  : 0/0
  3198 ;;		Unchanged: 0/0
  3199 ;; Data sizes:     COMRAM   BANK0   BANK1   BANK2   BANK3   BANK4   BANK5   BANK6   BANK7   BANK8   BANK9  BANK10  BANK1
      +1  BANK12  BANK13  BANK14  BANK15
  3200 ;;      Params:         0       0       0       0       0       0       0       0       0       0       0       0       
      +0       0       0       0       0
  3201 ;;      Locals:         0       0       0       0       0       0       0       0       0       0       0       0       
      +0       0       0       0       0
  3202 ;;      Temps:          0       0       0       0       0       0       0       0       0       0       0       0       
      +0       0       0       0       0
  3203 ;;      Totals:         0       0       0       0       0       0       0       0       0       0       0       0       
      +0       0       0       0       0
  3204 ;;Total ram usage:        0 bytes
  3205 ;; Hardware stack levels used:    1
  3206 ;; Hardware stack levels required when called:    1
  3207 ;; This function calls:
  3208 ;;		_Key_Scan
  3209 ;; This function is called by:
  3210 ;;		_Sys_Cyc
  3211 ;; This function uses a non-reentrant model
  3212 ;;
  3213                           
  3214                           	psect	text25
  3215  00177E                     __ptext25:
  3216                           	opt stack 0
  3217  00177E                     _Key_FSM_Scan:
  3218                           	opt stack 25
  3219                           
  3220                           ;Key.c: 82: Key_Scan();
  3221                           
  3222                           ;incstack = 0
  3223  00177E  ECCC  F00B         	call	_Key_Scan	;wreg free
  3224                           
  3225                           ;Key.c: 83: if( Local_Key_FSM.key_BUS & 0x01 ) Local_Key_FSM.key_count[0]++;
  3226  001782  A032               	btfss	_Local_Key_FSM,0,c	;volatile
  3227  001784  D003               	goto	i2l1284
  3228  001786  4A35               	infsnz	_Local_Key_FSM+3,f,c	;volatile
  3229  001788  2A36               	incf	_Local_Key_FSM+4,f,c	;volatile
  3230  00178A  D000               	goto	i2l1284
  3231  00178C                     i2l1284:
  3232                           
  3233                           ;Key.c: 84: if( Local_Key_FSM.key_BUS & 0x02 ) Local_Key_FSM.key_count[1]++;
  3234  00178C  A232               	btfss	_Local_Key_FSM,1,c	;volatile
  3235  00178E  0012               	return	
  3236  001790  4A37               	infsnz	_Local_Key_FSM+5,f,c	;volatile
  3237  001792  2A38               	incf	_Local_Key_FSM+6,f,c	;volatile
  3238  001794  0012               	return	
  3239  001796  0012               	return		;funcret
  3240  001798                     __end_of_Key_FSM_Scan:
  3241                           	opt stack 0
  3242                           pclatu	equ	0xFFB
  3243                           pclath	equ	0xFFA
  3244                           tblptru	equ	0xFF8
  3245                           tblptrh	equ	0xFF7
  3246                           tblptrl	equ	0xFF6
  3247                           tablat	equ	0xFF5
  3248                           prodh	equ	0xFF4
  3249                           prodl	equ	0xFF3
  3250                           intcon	equ	0xFF2
  3251                           postinc0	equ	0xFEE
  3252                           fsr0h	equ	0xFEA
  3253                           fsr0l	equ	0xFE9
  3254                           wreg	equ	0xFE8
  3255                           postinc1	equ	0xFE6
  3256                           fsr1h	equ	0xFE2
  3257                           fsr1l	equ	0xFE1
  3258                           indf2	equ	0xFDF
  3259                           postinc2	equ	0xFDE
  3260                           postdec2	equ	0xFDD
  3261                           plusw2	equ	0xFDB
  3262                           fsr2h	equ	0xFDA
  3263                           fsr2l	equ	0xFD9
  3264                           status	equ	0xFD8
  3265                           
  3266 ;; *************** function _Key_Scan *****************
  3267 ;; Defined at:
  3268 ;;		line 58 in file "_01_USER/Key.c"
  3269 ;; Parameters:    Size  Location     Type
  3270 ;;		None
  3271 ;; Auto vars:     Size  Location     Type
  3272 ;;		None
  3273 ;; Return value:  Size  Location     Type
  3274 ;;		None               void
  3275 ;; Registers used:
  3276 ;;		wreg, status,2, status,0
  3277 ;; Tracked objects:
  3278 ;;		On entry : 0/0
  3279 ;;		On exit  : 0/0
  3280 ;;		Unchanged: 0/0
  3281 ;; Data sizes:     COMRAM   BANK0   BANK1   BANK2   BANK3   BANK4   BANK5   BANK6   BANK7   BANK8   BANK9  BANK10  BANK1
      +1  BANK12  BANK13  BANK14  BANK15
  3282 ;;      Params:         0       0       0       0       0       0       0       0       0       0       0       0       
      +0       0       0       0       0
  3283 ;;      Locals:         0       0       0       0       0       0       0       0       0       0       0       0       
      +0       0       0       0       0
  3284 ;;      Temps:          0       0       0       0       0       0       0       0       0       0       0       0       
      +0       0       0       0       0
  3285 ;;      Totals:         0       0       0       0       0       0       0       0       0       0       0       0       
      +0       0       0       0       0
  3286 ;;Total ram usage:        0 bytes
  3287 ;; Hardware stack levels used:    1
  3288 ;; This function calls:
  3289 ;;		Nothing
  3290 ;; This function is called by:
  3291 ;;		_Key_FSM_Scan
  3292 ;; This function uses a non-reentrant model
  3293 ;;
  3294                           
  3295                           	psect	text26
  3296  001798                     __ptext26:
  3297                           	opt stack 0
  3298  001798                     _Key_Scan:
  3299                           	opt stack 25
  3300                           
  3301                           ;Key.c: 61: Local_Key_FSM.key_BUS = 0x00;
  3302                           
  3303                           ;incstack = 0
  3304  001798  0E00               	movlw	0
  3305  00179A  6E32               	movwf	_Local_Key_FSM,c	;volatile
  3306                           
  3307                           ;Key.c: 63: if( RF2 == 0 ) Local_Key_FSM.key_BUS |= (0x01 << 0) ;
  3308  00179C  B485               	btfsc	3973,2,c	;volatile
  3309  00179E  D002               	goto	i2l1110
  3310  0017A0  8032               	bsf	_Local_Key_FSM,0,c	;volatile
  3311  0017A2  D000               	goto	i2l1110
  3312  0017A4                     i2l1110:
  3313                           
  3314                           ;Key.c: 64: if( RF3 == 0 ) Local_Key_FSM.key_BUS |= (0x01 << 1) ;
  3315  0017A4  B685               	btfsc	3973,3,c	;volatile
  3316  0017A6  0012               	return	
  3317  0017A8  8232               	bsf	_Local_Key_FSM,1,c	;volatile
  3318  0017AA  0012               	return	
  3319  0017AC  0012               	return		;funcret
  3320  0017AE                     __end_of_Key_Scan:
  3321                           	opt stack 0
  3322                           pclatu	equ	0xFFB
  3323                           pclath	equ	0xFFA
  3324                           tblptru	equ	0xFF8
  3325                           tblptrh	equ	0xFF7
  3326                           tblptrl	equ	0xFF6
  3327                           tablat	equ	0xFF5
  3328                           prodh	equ	0xFF4
  3329                           prodl	equ	0xFF3
  3330                           intcon	equ	0xFF2
  3331                           postinc0	equ	0xFEE
  3332                           fsr0h	equ	0xFEA
  3333                           fsr0l	equ	0xFE9
  3334                           wreg	equ	0xFE8
  3335                           postinc1	equ	0xFE6
  3336                           fsr1h	equ	0xFE2
  3337                           fsr1l	equ	0xFE1
  3338                           indf2	equ	0xFDF
  3339                           postinc2	equ	0xFDE
  3340                           postdec2	equ	0xFDD
  3341                           plusw2	equ	0xFDB
  3342                           fsr2h	equ	0xFDA
  3343                           fsr2l	equ	0xFD9
  3344                           status	equ	0xFD8
  3345                           pclatu	equ	0xFFB
  3346                           pclath	equ	0xFFA
  3347                           tblptru	equ	0xFF8
  3348                           tblptrh	equ	0xFF7
  3349                           tblptrl	equ	0xFF6
  3350                           tablat	equ	0xFF5
  3351                           prodh	equ	0xFF4
  3352                           prodl	equ	0xFF3
  3353                           intcon	equ	0xFF2
  3354                           postinc0	equ	0xFEE
  3355                           fsr0h	equ	0xFEA
  3356                           fsr0l	equ	0xFE9
  3357                           wreg	equ	0xFE8
  3358                           postinc1	equ	0xFE6
  3359                           fsr1h	equ	0xFE2
  3360                           fsr1l	equ	0xFE1
  3361                           indf2	equ	0xFDF
  3362                           postinc2	equ	0xFDE
  3363                           postdec2	equ	0xFDD
  3364                           plusw2	equ	0xFDB
  3365                           fsr2h	equ	0xFDA
  3366                           fsr2l	equ	0xFD9
  3367                           status	equ	0xFD8
  3368                           
  3369                           	psect	rparam
  3370  0000                     pclatu	equ	0xFFB
  3371                           pclath	equ	0xFFA
  3372                           tblptru	equ	0xFF8
  3373                           tblptrh	equ	0xFF7
  3374                           tblptrl	equ	0xFF6
  3375                           tablat	equ	0xFF5
  3376                           prodh	equ	0xFF4
  3377                           prodl	equ	0xFF3
  3378                           intcon	equ	0xFF2
  3379                           postinc0	equ	0xFEE
  3380                           fsr0h	equ	0xFEA
  3381                           fsr0l	equ	0xFE9
  3382                           wreg	equ	0xFE8
  3383                           postinc1	equ	0xFE6
  3384                           fsr1h	equ	0xFE2
  3385                           fsr1l	equ	0xFE1
  3386                           indf2	equ	0xFDF
  3387                           postinc2	equ	0xFDE
  3388                           postdec2	equ	0xFDD
  3389                           plusw2	equ	0xFDB
  3390                           fsr2h	equ	0xFDA
  3391                           fsr2l	equ	0xFD9
  3392                           status	equ	0xFD8


Data Sizes:
    Strings     0
    Constant    10
    Data        0
    BSS         30
    Persistent  0
    Stack       0

Auto Spaces:
    Space          Size  Autos    Used
    COMRAM           95     37      67
    BANK0           160      3       3
    BANK1           256      0       0
    BANK2           256      0       0
    BANK3           256      0       0
    BANK4           256      0       0
    BANK5           256      0       0
    BANK6           256      0       0
    BANK7           256      0       0
    BANK8           256      0       0
    BANK9           256      0       0
    BANK10          256      0       0
    BANK11          256      0       0
    BANK12          256      0       0
    BANK13          256      0       0
    BANK14          256      0       0
    BANK15           22      0       0

Pointer List with Targets:

    EEPROM_Writers@DateBuff	PTR unsigned char  size(2) Largest target is 1
		 -> Manage_Message@_databuff(COMRAM[1]), 

    EEPROM_Reads@DateBuff	PTR unsigned char  size(2) Largest target is 1
		 -> Sys_Init@_databuff(BANK0[1]), 


Critical Paths under _main in COMRAM

    _Sys_Init->_EEPROM_Reads
    _Timer0_Init->_SetTimer0
    _EEPROM_Reads->_Read_b_eep
    _Run->_delay_ms
    _delay_ms->_delay1ms

Critical Paths under _Sys_Cyc in COMRAM

    _Sys_Cyc->_Manage_Message
    _Show_Result->_Nixie_ShowNum
    _Nixie_ShowNum->___awdiv
    _Manage_Message->_EEPROM_Writers
    _EEPROM_Writers->_Write_b_eep

Critical Paths under _main in BANK0

    _main->_Sys_Init
    _Sys_Init->_EEPROM_Reads

Critical Paths under _Sys_Cyc in BANK0

    None.

Critical Paths under _main in BANK1

    None.

Critical Paths under _Sys_Cyc in BANK1

    None.

Critical Paths under _main in BANK2

    None.

Critical Paths under _Sys_Cyc in BANK2

    None.

Critical Paths under _main in BANK3

    None.

Critical Paths under _Sys_Cyc in BANK3

    None.

Critical Paths under _main in BANK4

    None.

Critical Paths under _Sys_Cyc in BANK4

    None.

Critical Paths under _main in BANK5

    None.

Critical Paths under _Sys_Cyc in BANK5

    None.

Critical Paths under _main in BANK6

    None.

Critical Paths under _Sys_Cyc in BANK6

    None.

Critical Paths under _main in BANK7

    None.

Critical Paths under _Sys_Cyc in BANK7

    None.

Critical Paths under _main in BANK8

    None.

Critical Paths under _Sys_Cyc in BANK8

    None.

Critical Paths under _main in BANK9

    None.

Critical Paths under _Sys_Cyc in BANK9

    None.

Critical Paths under _main in BANK10

    None.

Critical Paths under _Sys_Cyc in BANK10

    None.

Critical Paths under _main in BANK11

    None.

Critical Paths under _Sys_Cyc in BANK11

    None.

Critical Paths under _main in BANK12

    None.

Critical Paths under _Sys_Cyc in BANK12

    None.

Critical Paths under _main in BANK13

    None.

Critical Paths under _Sys_Cyc in BANK13

    None.

Critical Paths under _main in BANK14

    None.

Critical Paths under _Sys_Cyc in BANK14

    None.

Critical Paths under _main in BANK15

    None.

Critical Paths under _Sys_Cyc in BANK15

    None.

Call Graph Tables:

 ---------------------------------------------------------------------------------
 (Depth) Function   	        Calls       Base Space   Used Autos Params    Refs
 ---------------------------------------------------------------------------------
 (0) _main                                                 0     0      0    1150
                                _Run
                           _Sys_Init
 ---------------------------------------------------------------------------------
 (1) _Sys_Init                                             1     1      0     910
                                              2 BANK0      1     1      0
                       _EEPROM_Reads
                        _IR2184_Init
                           _Key_Init
                         _Nixie_Init
                        _Timer0_Init
 ---------------------------------------------------------------------------------
 (2) _Timer0_Init                                          0     0      0     215
                          _SetTimer0
 ---------------------------------------------------------------------------------
 (3) _SetTimer0                                            4     2      2     215
                                             28 COMRAM     4     2      2
 ---------------------------------------------------------------------------------
 (2) _Nixie_Init                                           0     0      0       0
 ---------------------------------------------------------------------------------
 (2) _Key_Init                                             0     0      0       0
 ---------------------------------------------------------------------------------
 (2) _IR2184_Init                                          0     0      0       0
 ---------------------------------------------------------------------------------
 (2) _EEPROM_Reads                                         9     3      6     624
                                             30 COMRAM     7     1      6
                                              0 BANK0      2     2      0
                         _Read_b_eep
 ---------------------------------------------------------------------------------
 (3) _Read_b_eep                                           2     0      2     139
                                             28 COMRAM     2     0      2
 ---------------------------------------------------------------------------------
 (1) _Run                                                  2     2      0     240
                                             33 COMRAM     2     2      0
                           _delay_ms
 ---------------------------------------------------------------------------------
 (2) _delay_ms                                             2     0      2     240
                                             31 COMRAM     2     0      2
                           _delay1ms
 ---------------------------------------------------------------------------------
 (3) _delay1ms                                             3     3      0      90
                                             28 COMRAM     3     3      0
 ---------------------------------------------------------------------------------
 Estimated maximum stack depth 3
 ---------------------------------------------------------------------------------
 (Depth) Function   	        Calls       Base Space   Used Autos Params    Refs
 ---------------------------------------------------------------------------------
 (4) _Sys_Cyc                                             14    14      0    3344
                                             14 COMRAM    14    14      0
                       _Key_FSM_Scan
                     _Manage_Message
                        _Show_Result
                            ___awmod
                            ___llmod
                            ___lwmod
                        i2_SetTimer0
 ---------------------------------------------------------------------------------
 (5) i2_SetTimer0                                          4     2      2      93
                                              0 COMRAM     4     2      2
 ---------------------------------------------------------------------------------
 (5) ___lwmod                                              5     1      4     287
                                              0 COMRAM     5     1      4
 ---------------------------------------------------------------------------------
 (5) ___llmod                                              9     1      8     415
                                              0 COMRAM     9     1      8
 ---------------------------------------------------------------------------------
 (5) _Show_Result                                          0     0      0    1024
                      _Nixie_ShowNum
 ---------------------------------------------------------------------------------
 (6) _Nixie_ShowNum                                        1     1      0    1024
                                              8 COMRAM     1     1      0
                            ___awdiv
                            ___awmod
 ---------------------------------------------------------------------------------
 (5) ___awmod                                              6     2      4     552
                                              0 COMRAM     6     2      4
 ---------------------------------------------------------------------------------
 (7) ___awdiv                                              8     4      4     428
                                              0 COMRAM     8     4      4
 ---------------------------------------------------------------------------------
 (5) _Manage_Message                                       1     1      0     973
                                             13 COMRAM     1     1      0
                     _EEPROM_Writers
                       _Key_FSM_Read
                      _Key_FSM_Reset
 ---------------------------------------------------------------------------------
 (6) _Key_FSM_Reset                                        1     1      0      45
                                              0 COMRAM     1     1      0
 ---------------------------------------------------------------------------------
 (6) _Key_FSM_Read                                         6     6      0     315
                                              0 COMRAM     6     6      0
 ---------------------------------------------------------------------------------
 (6) _EEPROM_Writers                                       9     3      6     588
                                              4 COMRAM     9     3      6
                        _Write_b_eep
 ---------------------------------------------------------------------------------
 (7) _Write_b_eep                                          4     1      3     218
                                              0 COMRAM     4     1      3
 ---------------------------------------------------------------------------------
 (5) _Key_FSM_Scan                                         0     0      0       0
                           _Key_Scan
 ---------------------------------------------------------------------------------
 (6) _Key_Scan                                             0     0      0       0
 ---------------------------------------------------------------------------------
 Estimated maximum stack depth 7
 ---------------------------------------------------------------------------------

 Call Graph Graphs:

 _main (ROOT)
   _Run
     _delay_ms
       _delay1ms
   _Sys_Init
     _EEPROM_Reads
       _Read_b_eep
     _IR2184_Init
     _Key_Init
     _Nixie_Init
     _Timer0_Init
       _SetTimer0

 _Sys_Cyc (ROOT)
   _Key_FSM_Scan
     _Key_Scan
   _Manage_Message
     _EEPROM_Writers
       _Write_b_eep
     _Key_FSM_Read
     _Key_FSM_Reset
   _Show_Result
     _Nixie_ShowNum
       ___awdiv
       ___awmod
   ___awmod
   ___llmod
   ___lwmod
   i2_SetTimer0

 Address spaces:
Name               Size   Autos  Total    Cost      Usage
BIGRAM             F15      0       0      37        0.0%
EEDATA             400      0       0       0        0.0%
BITBANK14          100      0       0      33        0.0%
BANK14             100      0       0      34        0.0%
BITBANK13          100      0       0      31        0.0%
BANK13             100      0       0      32        0.0%
BITBANK12          100      0       0      29        0.0%
BANK12             100      0       0      30        0.0%
BITBANK11          100      0       0      27        0.0%
BANK11             100      0       0      28        0.0%
BITBANK10          100      0       0      25        0.0%
BANK10             100      0       0      26        0.0%
BITBANK9           100      0       0      23        0.0%
BANK9              100      0       0      24        0.0%
BITBANK8           100      0       0      21        0.0%
BANK8              100      0       0      22        0.0%
BITBANK7           100      0       0      19        0.0%
BANK7              100      0       0      20        0.0%
BITBANK6           100      0       0      17        0.0%
BANK6              100      0       0      18        0.0%
BITBANK5           100      0       0      15        0.0%
BANK5              100      0       0      16        0.0%
BITBANK4           100      0       0      13        0.0%
BANK4              100      0       0      14        0.0%
BITBANK3           100      0       0      10        0.0%
BANK3              100      0       0      11        0.0%
BITBANK2           100      0       0       8        0.0%
BANK2              100      0       0       9        0.0%
BITBANK1           100      0       0       6        0.0%
BANK1              100      0       0       7        0.0%
BITBANK0            A0      0       0       4        0.0%
BANK0               A0      3       3       5        1.9%
BITCOMRAM           5F      0       0       0        0.0%
COMRAM              5F     25      43       1       70.5%
BITBANK15           16      0       0      35        0.0%
BANK15              16      0       0      36        0.0%
BITSFR_1             0      0       0      40        0.0%
SFR_1                0      0       0      40        0.0%
BITSFR               0      0       0      40        0.0%
SFR                  0      0       0      40        0.0%
STACK                0      0       0       2        0.0%
NULL                 0      0       0       0        0.0%
ABS                  0      0      46      12        0.0%
DATA                 0      0      46       3        0.0%
CODE                 0      0       0       0        0.0%


Microchip Technology PIC18 Macro Assembler V1.34 build -361300703 
Symbol Table                                                                                   Mon Feb 22 10:40:04 2016

      EEPROM_Reads@length 0023            Key_FSM_Reset@t 0001              ___awdiv@sign 0006  
             __CFG_BORV$3 000000              __CFG_CP0$OFF 000000              __CFG_CP1$OFF 000000  
            __CFG_CP2$OFF 000000              __CFG_CP3$OFF 000000              __CFG_CP4$OFF 000000  
            __CFG_CP5$OFF 000000              __CFG_CP6$OFF 000000              __CFG_CP7$OFF 000000  
                     l180 1380                       l960 1670                       l972 1690  
                     l964 167E                       l968 168C                       l976 1694  
                     _GIE 007F97              __CFG_CPB$OFF 000000                       _RA4 007C04  
                     _RA5 007C05                       _RD2 007C1A                       _RD3 007C1B  
                     _RF2 007C2A                       _RF3 007C2B                       _RE5 007C25  
                     _RF4 007C2C                       _RE6 007C26                       _RF5 007C2D  
            __CFG_CPD$OFF 000000                       _PSA 007EAB                       _Run 1346  
          ??_Key_FSM_Read 0001            ??_Key_FSM_Scan 0001      __size_of_Write_b_eep 0040  
            ___awmod@sign 0006                       prod 000FF3                       wreg 000FE8  
                    ?_Run 0001                      l1622 1766                      l1624 176C  
                    l1690 13A2                      l1678 1368                      l1870 1450  
                    l1874 1476                      l1898 17B4                      _T0CS 007EAD  
                    _T0SE 007EAC                      _IPEN 007E87                      i2l48 1092  
 __size_of_EEPROM_Writers 005C                      _main 17AE                      fsr0h 000FEA  
                    fsr1h 000FE2                      fsr0l 000FE9                      fsr2h 000FDA  
                    fsr1l 000FE1                      indf2 000FDF                      fsr2l 000FD9  
                    pclat 000FFA           ??_Key_FSM_Reset 0001                      prodh 000FF4  
                    prodl 000FF3                      start 015C             __CFG_IESO$OFF 000000  
           __CFG_FOSC$HS1 000000             __CFG_MCLRE$ON 000000              ___param_bank 000010  
         EEPROM_Writers@i 000D      __end_of_EEPROM_Reads 1494      __size_of_IR2184_Init 0022  
                   ??_Run 0022             __CFG_RETEN$ON 000000                     ?_main 0001  
         __end_of___awdiv 1238                     _EEADR 000F62           __end_of___awmod 1346  
         __end_of_Sys_Cyc 015C           ___awdiv@divisor 0003           __end_of___llmod 142C  
                   _T0PS0 007EA8                     _T0PS1 007EA9                     _T0PS2 007EAA  
         __end_of___lwmod 159C                     i2l123 0122                     i2l227 14C8  
           __CFG_WDTEN$ON 000000                     i2l347 1650                     i2l818 141A  
                   i2l881 1592           ___awdiv@counter 0005                     _TMR0H 000FD7  
                   _TMR0L 000FD6                     _PORTC 000F82                     _TRISC 000F94  
           __CFG_WRT0$OFF 000000             __CFG_WRT1$OFF 000000             __CFG_WRT2$OFF 000000  
           __CFG_WRT3$OFF 000000             __CFG_WRT4$OFF 000000            __CFG_EBRT0$OFF 000000  
           __CFG_WRT5$OFF 000000            __CFG_EBRT1$OFF 000000             __CFG_WRT6$OFF 000000  
          __CFG_EBRT2$OFF 000000             __CFG_WRT7$OFF 000000            __CFG_EBRT3$OFF 000000  
          __CFG_EBRT4$OFF 000000            __CFG_FCMEN$OFF 000000            __CFG_EBRT5$OFF 000000  
          __CFG_EBRT6$OFF 000000            __CFG_EBRT7$OFF 000000             __CFG_WRTB$OFF 000000  
           __CFG_WRTC$OFF 000000             __CFG_WRTD$OFF 000000            Read_b_eep@badd 001D  
          __CFG_EBRTB$OFF 000000    Write_b_eep@GIE_BIT_VAL 0004             _Local_Key_FSM 0032  
                   tablat 000FF5                     plusw2 000FDB                     status 000FD8  
         __initialization 1730              __end_of_main 17C2          __end_of_Key_Init 17E4  
     Key_FSM_Read@key_num 0006          __end_of_Key_Scan 17AE                _Read_b_eep 174A  
                  ??_main 0026             __activetblptr 000001          ??_Manage_Message 000E  
                  _CCP7OD 007944          ___llmod@dividend 0001         Sys_Init@_databuff 0062  
                  _EEADRH 000F63                    _EEDATA 000F61                    _EECON2 000F7E  
                  _T08BIT 007EAE          ___awdiv@dividend 0001          __end_of_Sys_Init 1622  
                  _ANSEL4 00792C                    _ANSEL7 00792F                    _ANSEL8 007920  
                  _ANSEL9 007921                    i2l1110 17A4                    i2l1140 110A  
                  i2l1132 10DE                    i2l1124 1068                    i2l1116 1012  
                  i2l1126 107E                    i2l1134 10F4           __CFG_BBSIZ$BB2K 000000  
                  i2l1152 1198                    i2l1144 1116                    i2l1128 10AC  
                  i2l1162 15AA                    i2l1156 119C                    i2l1164 15D8  
              _Nixie_Init 17C2                    i2l1530 11CA                    i2l1284 178C  
                  i2l1612 1510                    i2l1540 11F2                    i2l1524 11B8  
                  i2l1710 127E                    i2l1616 1538                    i2l1536 11E0  
                  i2l1552 121C                    i2l1800 00C6                    i2l1722 12A0  
                  i2l1714 128A                    i2l1706 1274                    i2l1538 11EA  
                  i2l1732 12BE                    i2l1556 122C                    i2l1548 1210  
                  i2l1580 1308                    i2l1572 12E8                    i2l1740 13CE  
                  i2l1804 00FC                    i2l1718 1294                    i2l1742 13DC  
                  i2l1728 12B2                    i2l1592 133A                    i2l1584 131E  
                  i2l1576 12F6                    i2l1568 12DA                    i2l1744 13E4  
                  i2l1760 1570                    i2l1808 011C                    i2l1578 1300  
                  i2l1588 132A                    i2l1748 140A                    i2l1764 1586  
                  i2l1756 155E                    i2l1758 1568                    i2l1794 0060  
           SetTimer0@_tmr 001D                    _TMR0IE 007F95                    _TMR0IF 007F92  
                  _TMR0ON 007EAF                    _WDTCON 000FD1          __end_of_delay1ms 169A  
        __end_of_delay_ms 177E             ??_Timer0_Init 0021              _IR2184_Timer 002A  
          __CFG_XINST$OFF 000000      __end_of_Key_FSM_Read 11A2      __end_of_Key_FSM_Scan 1798  
 Manage_Message@_databuff 000E      EEPROM_Writers@length 0009                 ??___awdiv 0005  
          __CFG_STVREN$ON 000000                 ??___awmod 0005                 ??_Sys_Cyc 000F  
              _Watch_Flag 0031                 ??___llmod 0009        __size_of_SetTimer0 0028  
               ??___lwmod 0005                    clear_0 1736          ___awdiv@quotient 0007  
         ___awmod@divisor 0003           ___awmod@counter 0005             ??_Show_Result 000A  
          _Local_Key_User 003B              __mediumconst 0000                    tblptrh 000FF7  
                  tblptrl 000FF6                    tblptru 000FF8            _EEPROM_Writers 14F4  
              __accesstop 0060   __end_of__initialization 173C              ?i2_SetTimer0 0001  
           ___rparam_used 000001     __size_of_EEPROM_Reads 0068            __pcstackCOMRAM 0001  
             ?_Read_b_eep 001D       __end_of_Timer0_Init 170E    __end_of_EEPROM_Writers 1550  
     __end_of_Show_Result 17EC              _EEPROM_Reads 142C         __end_of_SetTimer0 16C2  
             ?_Nixie_Init 0001                 ?_Key_Init 0001                 ?_Key_Scan 0001  
         __CFG_PLLCFG$OFF 000000        __end_of_LED_Number 100B                 ?_Sys_Init 0001  
           ??_Write_b_eep 0004                   _ANSEL10 007922    __size_of_Nixie_ShowNum 0060  
               ?_delay1ms 0001                 ?_delay_ms 0020                   i2u24_40 1036  
                 i2u32_44 1164                   i2u32_45 1160                   i2u25_40 1054  
                 i2u33_44 1178                   i2u33_45 1174                   i2u26_40 10CA  
         __CFG_WDTPS$1024 000000                   i2u87_45 165C                   i2u87_46 165E  
         ?_EEPROM_Writers 0005                ??_Key_Init 001D       __size_of_Read_b_eep 001A  
              ??_Key_Scan 0001     __size_of_Key_FSM_Read 0196     __size_of_Key_FSM_Scan 001A  
           ??_IR2184_Init 001D           __CFG_PWRTEN$OFF 000000                   __Hparam 0000  
             _Timer0_Init 16EA     __end_of_Key_FSM_Reset 15E2                   __Lparam 0000  
                 ___awdiv 11A2                   ___awmod 12C4                   _Sys_Cyc 0008  
                 ___llmod 13BC                   ___lwmod 1550              __psmallconst 1000  
                 __pcinit 1730                ??_Sys_Init 0026                   __ramtop 1000  
     __size_of_Nixie_Init 0014                   __ptext0 17AE                   __ptext1 15E2  
                 __ptext2 16EA                   __ptext3 169A                   __ptext4 17C2  
                 __ptext5 17D6                   __ptext6 170E                   __ptext7 142C  
                 __ptext8 174A                   __ptext9 1346               _Show_Result 17E4  
            __size_of_Run 0076          ___awmod@dividend 0001                ??_delay1ms 001D  
           Sys_Init@F8489 002E         __CFG_MSSPMSK$MSK7 000000                ??_delay_ms 0022  
            _Key_FSM_Read 100C              _Key_FSM_Scan 177E       __end_of_Write_b_eep 1662  
    end_of_initialization 173C             _Nixie_ShowNum 1494      __size_ofi2_SetTimer0 0028  
                 postdec2 000FDD                   postinc0 000FEE                   postinc1 000FE6  
                 postinc2 000FDE       __end_of_IR2184_Init 1730       Manage_Message@F8484 002C  
               _TRISAbits 000F92                 _TRISDbits 000F95                 _TRISEbits 000F96  
               _TRISFbits 000F97             EEPROM_Reads@i 0025            ?_Nixie_ShowNum 0001  
Key_FSM_Read@key_num_mate 0005              ??_Read_b_eep 001F        EEPROM_Writers@Addr 0005  
             _Write_b_eep 1622       start_initialization 1730               __end_of_Run 13BC  
            ??_Nixie_Init 001D                 _Nix_Flash 0030        __end_of_Read_b_eep 1764  
 __size_of_Manage_Message 008C           ___llmod@divisor 0005         __size_of_Key_Init 000E  
       __size_of_Key_Scan 0016           ___llmod@counter 0009                 _SetTimer0 169A  
             _IR2184_Init 170E           i2SetTimer0@_tmr 0001                 _Timer_Cyc 0026  
      __end_of_Nixie_Init 17D6         __size_of_Sys_Init 0040          ??_EEPROM_Writers 000B  
             __pbssCOMRAM 0026             __pcstackBANK0 0060           ??_Nixie_ShowNum 0009  
       __size_of_delay1ms 0038         __size_of_delay_ms 001A                ?_SetTimer0 001D  
            ?_Timer0_Init 0001         __CFG_CCP2MX$PORTC 000000                 __pintcode 0008  
                ?___awdiv 0001                  ?___awmod 0001                  ?_Sys_Cyc 0001  
                ?___llmod 0001                  ?___lwmod 0001           Nixie_ShowNum@_t 002D  
            ?_Show_Result 0001               __smallconst 1000                 delay1ms@a 001D  
               delay1ms@b 001E                 delay1ms@c 001F         Nixie_ShowNum@_num 0009  
  EEPROM_Writers@DateBuff 0007          __CFG_SOSCSEL$DIG 000000           Write_b_eep@badd 0001  
         Write_b_eep@bdat 0003    __size_of_Key_FSM_Reset 0046                  _Key_Init 17D6  
                _Key_Scan 1798            _Manage_Message 1238             ??i2_SetTimer0 0003  
             ??_SetTimer0 001F                _EECON1bits 000F7F                  __Hrparam 0000  
              _IR2184_Num 002F                  __Lrparam 0000              __Lsmallconst 1000  
      __CFG_BOREN$SBORDIS 000000          __size_of___awdiv 0096          __size_of___awmod 0082  
        __size_of_Sys_Cyc 0154          __size_of___llmod 0070          __size_of___lwmod 004C  
                _Sys_Init 15E2              ?_Write_b_eep 0001                  _delay1ms 1662  
                _delay_ms 1764                  __ptext10 1764                  __ptext11 1662  
                __ptext20 1238                  __ptext21 159C                  __ptext13 16C2  
                __ptext22 100C                  __ptext14 1550                  __ptext23 14F4  
                __ptext15 13BC                  __ptext24 1622                  __ptext16 17E4  
                __ptext25 177E                  __ptext17 1494                  __ptext26 1798  
                __ptext18 12C4                  __ptext19 11A2             ?_EEPROM_Reads 001F  
  __end_of_Manage_Message 12C4             __size_of_main 0014       __CFG_RTCOSC$SOSCREF 000000  
            ?_IR2184_Init 0001             _Key_FSM_Reset 159C      __size_of_Timer0_Init 0024  
     __end_ofi2_SetTimer0 16EA       __CFG_INTOSCSEL$HIGH 000000               delay_ms@_ms 0020  
              _LED_Number 1001                _INTCONbits 000FF2      __size_of_Show_Result 0008  
          ??_EEPROM_Reads 0060           ?_Manage_Message 0001                  intlevel2 0000  
        ___lwmod@dividend 0001            ?_Key_FSM_Reset 0001      EEPROM_Reads@DateBuff 0021  
         ___lwmod@divisor 0003           ___lwmod@counter 0005             ?_Key_FSM_Read 0001  
           ?_Key_FSM_Scan 0001     __end_of_Nixie_ShowNum 14F4       __CFG_BORPWR$ZPBORMV 000000  
             i2_SetTimer0 16C2          EEPROM_Reads@Addr 001F  
