

Microchip Technology PIC18 LITE Macro Assembler V1.34 build -361300703 
                                                                                               Sat Dec 05 16:39:35 2015

Microchip Technology Omniscient Code Generator (Lite mode) build 201502162209
     1                           	processor	18F67K22
     2                           	fnconf	rparam,??,?,0
     3                           	opt	pw 120
     4                           	opt	lm
     5                           	psect	text0,global,reloc=2,class=CODE,delta=1
     6                           	psect	cinit,global,reloc=2,class=CODE,delta=1
     7                           	psect	bssCOMRAM,global,class=COMRAM,space=1,delta=1
     8                           	psect	cstackCOMRAM,global,class=COMRAM,space=1,delta=1
     9                           	psect	text1,global,reloc=2,class=CODE,delta=1
    10                           	psect	text2,global,reloc=2,class=CODE,delta=1
    11                           	psect	text3,global,reloc=2,class=CODE,delta=1
    12                           	psect	text4,global,reloc=2,class=CODE,delta=1
    13                           	psect	text5,global,reloc=2,class=CODE,delta=1
    14                           	psect	text6,global,reloc=2,class=CODE,delta=1
    15                           	psect	intcode,global,reloc=2,class=CODE,delta=1
    16                           	psect	text8,global,reloc=2,class=CODE,delta=1
    17                           	psect	intsave_regs,global,class=BIGRAM,space=1,delta=1
    18                           	psect	rparam,global,class=COMRAM,space=1,delta=1
    19  0000                     _PORTEbits	set	3972
    20  0000                     _TMR0H	set	4055
    21  0000                     _TMR0L	set	4054
    22  0000                     _TRISC	set	3988
    23  0000                     _TRISE	set	3990
    24  0000                     _TRISF	set	3991
    25  0000                     _GIE	set	32663
    26  0000                     _IPEN	set	32391
    27  0000                     _PSA	set	32427
    28  0000                     _RE2	set	31778
    29  0000                     _RE3	set	31779
    30  0000                     _RE4	set	31780
    31  0000                     _RE5	set	31781
    32  0000                     _RF7	set	31791
    33  0000                     _T08BIT	set	32430
    34  0000                     _T0CS	set	32429
    35  0000                     _T0PS0	set	32424
    36  0000                     _T0PS1	set	32425
    37  0000                     _T0PS2	set	32426
    38  0000                     _T0SE	set	32428
    39  0000                     _TMR0IE	set	32661
    40  0000                     _TMR0IF	set	32658
    41  0000                     _TMR0ON	set	32431
    42                           
    43                           ; 0 bytes @ 0x17
    44 ;;
    45 ;;Main: autosize = 0, tempsize = 0, incstack = 0, save=0
    46 ;;
    47 ;; *************** function _main *****************
    48 ;; Defined at:
    49 ;;		line 29 in file "_01_USER/main.c"
    50 ;; Parameters:    Size  Location     Type
    51 ;;		None
    52 ;; Auto vars:     Size  Location     Type
    53 ;;		None
    54 ;; Return value:  Size  Location     Type
    55 ;;                  2   18[None  ] int 
    56 ;; Registers used:
    57 ;;		wreg, status,2, status,0, cstack
    58 ;; Tracked objects:
    59 ;;		On entry : 0/0
    60 ;;		On exit  : 0/0
    61 ;;		Unchanged: 0/0
    62 ;; Data sizes:     COMRAM   BANK0   BANK1   BANK2   BANK3   BANK4   BANK5   BANK6   BANK7   BANK8   BANK9  BANK10  BANK1
      +1  BANK12  BANK13  BANK14  BANK15
    63 ;;      Params:         0       0       0       0       0       0       0       0       0       0       0       0       
      +0       0       0       0       0
    64 ;;      Locals:         0       0       0       0       0       0       0       0       0       0       0       0       
      +0       0       0       0       0
    65 ;;      Temps:          0       0       0       0       0       0       0       0       0       0       0       0       
      +0       0       0       0       0
    66 ;;      Totals:         0       0       0       0       0       0       0       0       0       0       0       0       
      +0       0       0       0       0
    67 ;;Total ram usage:        0 bytes
    68 ;; Hardware stack levels required when called:    4
    69 ;; This function calls:
    70 ;;		_GPIO_Config
    71 ;;		_Key_Init
    72 ;;		_Timer0_Init
    73 ;;		_delay_ms
    74 ;; This function is called by:
    75 ;;		Startup code after reset
    76 ;; This function uses a non-reentrant model
    77 ;;
    78                           
    79                           	psect	text0
    80  000134                     __ptext0:
    81                           	opt stack 0
    82  000134                     _main:
    83                           	opt stack 27
    84                           
    85                           ;main.c: 31: GPIO_Config();
    86                           
    87                           ;incstack = 0
    88  000134  ECD3  F000         	call	_GPIO_Config	;wreg free
    89                           
    90                           ;main.c: 32: Key_Init();
    91  000138  ECD8  F000         	call	_Key_Init	;wreg free
    92                           
    93                           ;main.c: 33: Timer0_Init();
    94  00013C  ECAE  F000         	call	_Timer0_Init	;wreg free
    95                           
    96                           ;main.c: 34: RE2 = 1;
    97  000140  8484               	bsf	3972,2,c	;volatile
    98                           
    99                           ;main.c: 35: RE3 = 1;
   100  000142  8684               	bsf	3972,3,c	;volatile
   101                           
   102                           ;main.c: 36: RE4 = 1;
   103  000144  8884               	bsf	3972,4,c	;volatile
   104                           
   105                           ;main.c: 37: RE5 = 1;
   106  000146  8A84               	bsf	3972,5,c	;volatile
   107  000148                     l19:
   108                           
   109                           ;main.c: 40: {
   110                           ;main.c: 41: delay_ms(500);
   111  000148  0E01               	movlw	1
   112  00014A  6E17               	movwf	delay_ms@_ms+1,c
   113  00014C  0EF4               	movlw	244
   114  00014E  6E16               	movwf	delay_ms@_ms,c
   115  000150  ECC0  F000         	call	_delay_ms	;wreg free
   116                           
   117                           ;main.c: 42: RE5=~RE5;
   118  000154  7A84               	btg	3972,5,c	;volatile
   119  000156  D7F8               	goto	l19
   120                           
   121                           ;main.c: 44: }
   122                           ;main.c: 46: return 0;
   123                           ;	Return value of _main is never used
   124  000158  EF4E  F000         	goto	start
   125  00015C                     __end_of_main:
   126                           	opt stack 0
   127                           
   128                           	psect	cinit
   129  00019A                     __pcinit:
   130                           	opt stack 0
   131  00019A                     start_initialization:
   132                           	opt stack 0
   133  00019A                     __initialization:
   134                           	opt stack 0
   135                           
   136                           ; Clear objects allocated to COMRAM (3 bytes)
   137  00019A  6A1A               	clrf	(__pbssCOMRAM+2)& (0+255),c
   138  00019C  6A19               	clrf	(__pbssCOMRAM+1)& (0+255),c
   139  00019E  6A18               	clrf	__pbssCOMRAM& (0+255),c
   140  0001A0                     end_of_initialization:
   141                           	opt stack 0
   142  0001A0                     __end_of__initialization:
   143                           	opt stack 0
   144  0001A0  0100               	movlb	0
   145  0001A2  EF9A  F000         	goto	_main	;jump to C main() function
   146                           
   147                           	psect	bssCOMRAM
   148  000018                     __pbssCOMRAM:
   149                           	opt stack 0
   150  000018                     _Local_Key:
   151                           	opt stack 0
   152  000018                     	ds	3
   153                           
   154                           	psect	cstackCOMRAM
   155  000001                     __pcstackCOMRAM:
   156                           	opt stack 0
   157  000001                     i2SetTimer0@_tmr:
   158                           	opt stack 0
   159                           
   160                           ; 2 bytes @ 0x0
   161  000001                     	ds	2
   162  000003                     ??i2_SetTimer0:
   163                           
   164                           ; 0 bytes @ 0x2
   165  000003                     	ds	2
   166  000005                     ??_Sys_Cyc:
   167                           
   168                           ; 0 bytes @ 0x4
   169  000005                     	ds	14
   170  000013                     delay1ms@a:
   171                           	opt stack 0
   172  000013                     SetTimer0@_tmr:
   173                           	opt stack 0
   174                           
   175                           ; 2 bytes @ 0x12
   176  000013                     	ds	1
   177  000014                     delay1ms@b:
   178                           	opt stack 0
   179                           
   180                           ; 1 bytes @ 0x13
   181  000014                     	ds	1
   182  000015                     ??_SetTimer0:
   183  000015                     delay1ms@c:
   184                           	opt stack 0
   185                           
   186                           ; 1 bytes @ 0x14
   187  000015                     	ds	1
   188  000016                     delay_ms@_ms:
   189                           	opt stack 0
   190                           
   191                           ; 2 bytes @ 0x15
   192  000016                     	ds	1
   193  000017                     
   194                           ; 0 bytes @ 0x16
   195  000017                     	ds	1
   196  000018                     
   197 ;; *************** function _delay_ms *****************
   198 ;; Defined at:
   199 ;;		line 35 in file "_01_USER/My_Delay.c"
   200 ;; Parameters:    Size  Location     Type
   201 ;;  _ms             2   21[COMRAM] unsigned int 
   202 ;; Auto vars:     Size  Location     Type
   203 ;;		None
   204 ;; Return value:  Size  Location     Type
   205 ;;		None               void
   206 ;; Registers used:
   207 ;;		wreg, status,2, status,0, cstack
   208 ;; Tracked objects:
   209 ;;		On entry : 0/0
   210 ;;		On exit  : 0/0
   211 ;;		Unchanged: 0/0
   212 ;; Data sizes:     COMRAM   BANK0   BANK1   BANK2   BANK3   BANK4   BANK5   BANK6   BANK7   BANK8   BANK9  BANK10  BANK1
      +1  BANK12  BANK13  BANK14  BANK15
   213 ;;      Params:         2       0       0       0       0       0       0       0       0       0       0       0       
      +0       0       0       0       0
   214 ;;      Locals:         0       0       0       0       0       0       0       0       0       0       0       0       
      +0       0       0       0       0
   215 ;;      Temps:          0       0       0       0       0       0       0       0       0       0       0       0       
      +0       0       0       0       0
   216 ;;      Totals:         2       0       0       0       0       0       0       0       0       0       0       0       
      +0       0       0       0       0
   217 ;;Total ram usage:        2 bytes
   218 ;; Hardware stack levels used:    1
   219 ;; Hardware stack levels required when called:    3
   220 ;; This function calls:
   221 ;;		_delay1ms
   222 ;; This function is called by:
   223 ;;		_main
   224 ;; This function uses a non-reentrant model
   225 ;;
   226                           
   227                           	psect	text1
   228  000180                     __ptext1:
   229                           	opt stack 0
   230  000180                     _delay_ms:
   231                           	opt stack 27
   232                           
   233                           ;My_Delay.c: 37: while(_ms--) delay1ms();
   234                           
   235                           ;incstack = 0
   236  000180  D003               	goto	l890
   237  000182                     l888:
   238  000182  EC50  F000         	call	_delay1ms	;wreg free
   239  000186  D000               	goto	l890
   240  000188                     l890:
   241  000188  0616               	decf	delay_ms@_ms,f,c
   242  00018A  A0D8               	btfss	status,0,c
   243  00018C  0617               	decf	delay_ms@_ms+1,f,c
   244  00018E  2816               	incf	delay_ms@_ms,w,c
   245  000190  E1F8               	bnz	l888
   246  000192  2817               	incf	delay_ms@_ms+1,w,c
   247  000194  A4D8               	btfss	status,2,c
   248  000196  D7F5               	goto	l888
   249  000198  0012               	return		;funcret
   250  00019A                     __end_of_delay_ms:
   251                           	opt stack 0
   252                           status	equ	0xFD8
   253                           
   254 ;; *************** function _delay1ms *****************
   255 ;; Defined at:
   256 ;;		line 58 in file "_01_USER/My_Delay.c"
   257 ;; Parameters:    Size  Location     Type
   258 ;;		None
   259 ;; Auto vars:     Size  Location     Type
   260 ;;  c               1   20[COMRAM] unsigned char 
   261 ;;  b               1   19[COMRAM] unsigned char 
   262 ;;  a               1   18[COMRAM] unsigned char 
   263 ;; Return value:  Size  Location     Type
   264 ;;		None               void
   265 ;; Registers used:
   266 ;;		wreg, status,2, status,0
   267 ;; Tracked objects:
   268 ;;		On entry : 0/0
   269 ;;		On exit  : 0/0
   270 ;;		Unchanged: 0/0
   271 ;; Data sizes:     COMRAM   BANK0   BANK1   BANK2   BANK3   BANK4   BANK5   BANK6   BANK7   BANK8   BANK9  BANK10  BANK1
      +1  BANK12  BANK13  BANK14  BANK15
   272 ;;      Params:         0       0       0       0       0       0       0       0       0       0       0       0       
      +0       0       0       0       0
   273 ;;      Locals:         3       0       0       0       0       0       0       0       0       0       0       0       
      +0       0       0       0       0
   274 ;;      Temps:          0       0       0       0       0       0       0       0       0       0       0       0       
      +0       0       0       0       0
   275 ;;      Totals:         3       0       0       0       0       0       0       0       0       0       0       0       
      +0       0       0       0       0
   276 ;;Total ram usage:        3 bytes
   277 ;; Hardware stack levels used:    1
   278 ;; Hardware stack levels required when called:    2
   279 ;; This function calls:
   280 ;;		Nothing
   281 ;; This function is called by:
   282 ;;		_delay_ms
   283 ;; This function uses a non-reentrant model
   284 ;;
   285                           
   286                           	psect	text2
   287  0000A0                     __ptext2:
   288                           	opt stack 0
   289  0000A0                     _delay1ms:
   290                           	opt stack 27
   291                           
   292                           ;My_Delay.c: 60: unsigned char a,b,c;
   293                           ;My_Delay.c: 61: for(c=1;c>0;c--)
   294                           
   295                           ;incstack = 0
   296  0000A0  0E01               	movlw	1
   297  0000A2  6E15               	movwf	delay1ms@c,c
   298  0000A4  5015               	movf	delay1ms@c,w,c
   299  0000A6  B4D8               	btfsc	status,2,c
   300  0000A8  0012               	return	
   301  0000AA  D001               	goto	l726
   302  0000AC  0012               	return	
   303  0000AE                     l726:
   304                           
   305                           ;My_Delay.c: 62: for(b=94;b>0;b--)
   306  0000AE  0E5E               	movlw	94
   307  0000B0  6E14               	movwf	delay1ms@b,c
   308  0000B2  5014               	movf	delay1ms@b,w,c
   309  0000B4  B4D8               	btfsc	status,2,c
   310  0000B6  D00D               	goto	l742
   311  0000B8  D001               	goto	l730
   312  0000BA  D00B               	goto	l742
   313  0000BC                     l730:
   314                           
   315                           ;My_Delay.c: 63: for(a=2;a>0;a--);
   316  0000BC  0E02               	movlw	2
   317  0000BE  6E13               	movwf	delay1ms@a,c
   318  0000C0  5013               	movf	delay1ms@a,w,c
   319  0000C2  B4D8               	btfsc	status,2,c
   320  0000C4  D004               	goto	l738
   321  0000C6  D001               	goto	l734
   322  0000C8  D002               	goto	l738
   323  0000CA                     l734:
   324  0000CA  0613               	decf	delay1ms@a,f,c
   325  0000CC  D7F9               	goto	L1
   326  0000CE                     l738:
   327  0000CE  0614               	decf	delay1ms@b,f,c
   328  0000D0  D7F0               	goto	L2
   329  0000D2                     l742:
   330  0000D2  0615               	decf	delay1ms@c,f,c
   331  0000D4  D7E7               	goto	L3
   332  0000D6  0012               	return		;funcret
   333  0000D8                     __end_of_delay1ms:
   334                           	opt stack 0
   335                           status	equ	0xFD8
   336                           
   337 ;; *************** function _Timer0_Init *****************
   338 ;; Defined at:
   339 ;;		line 35 in file "_01_USER/My_Timer.c"
   340 ;; Parameters:    Size  Location     Type
   341 ;;		None
   342 ;; Auto vars:     Size  Location     Type
   343 ;;		None
   344 ;; Return value:  Size  Location     Type
   345 ;;                  2    6[None  ] int 
   346 ;; Registers used:
   347 ;;		wreg, status,2, status,0, cstack
   348 ;; Tracked objects:
   349 ;;		On entry : 0/0
   350 ;;		On exit  : 0/0
   351 ;;		Unchanged: 0/0
   352 ;; Data sizes:     COMRAM   BANK0   BANK1   BANK2   BANK3   BANK4   BANK5   BANK6   BANK7   BANK8   BANK9  BANK10  BANK1
      +1  BANK12  BANK13  BANK14  BANK15
   353 ;;      Params:         0       0       0       0       0       0       0       0       0       0       0       0       
      +0       0       0       0       0
   354 ;;      Locals:         0       0       0       0       0       0       0       0       0       0       0       0       
      +0       0       0       0       0
   355 ;;      Temps:          0       0       0       0       0       0       0       0       0       0       0       0       
      +0       0       0       0       0
   356 ;;      Totals:         0       0       0       0       0       0       0       0       0       0       0       0       
      +0       0       0       0       0
   357 ;;Total ram usage:        0 bytes
   358 ;; Hardware stack levels used:    1
   359 ;; Hardware stack levels required when called:    3
   360 ;; This function calls:
   361 ;;		_SetTimer0
   362 ;; This function is called by:
   363 ;;		_main
   364 ;; This function uses a non-reentrant model
   365 ;;
   366                           
   367                           	psect	text3
   368  00015C                     __ptext3:
   369                           	opt stack 0
   370  00015C                     _Timer0_Init:
   371                           	opt stack 27
   372                           
   373                           ;My_Timer.c: 37: T08BIT = 0;
   374                           
   375                           ;incstack = 0
   376  00015C  9CD5               	bcf	4053,6,c	;volatile
   377                           
   378                           ;My_Timer.c: 38: T0CS = 0;
   379  00015E  9AD5               	bcf	4053,5,c	;volatile
   380                           
   381                           ;My_Timer.c: 39: T0SE = 0;
   382  000160  98D5               	bcf	4053,4,c	;volatile
   383                           
   384                           ;My_Timer.c: 40: PSA = 0;
   385  000162  96D5               	bcf	4053,3,c	;volatile
   386                           
   387                           ;My_Timer.c: 41: T0PS2 = 0;
   388  000164  94D5               	bcf	4053,2,c	;volatile
   389                           
   390                           ;My_Timer.c: 42: T0PS1 = 0;
   391  000166  92D5               	bcf	4053,1,c	;volatile
   392                           
   393                           ;My_Timer.c: 43: T0PS0 = 0;
   394  000168  90D5               	bcf	4053,0,c	;volatile
   395                           
   396                           ;My_Timer.c: 56: SetTimer0(1);
   397  00016A  0E00               	movlw	0
   398  00016C  6E14               	movwf	SetTimer0@_tmr+1,c
   399  00016E  0E01               	movlw	1
   400  000170  6E13               	movwf	SetTimer0@_tmr,c
   401  000172  EC6C  F000         	call	_SetTimer0	;wreg free
   402                           
   403                           ;My_Timer.c: 57: TMR0ON = 1;
   404  000176  8ED5               	bsf	4053,7,c	;volatile
   405                           
   406                           ;My_Timer.c: 58: TMR0IE = 1;
   407  000178  8AF2               	bsf	intcon,5,c	;volatile
   408                           
   409                           ;My_Timer.c: 59: IPEN = 0;GIE = 1;
   410  00017A  9ED0               	bcf	4048,7,c	;volatile
   411  00017C  8EF2               	bsf	intcon,7,c	;volatile
   412  00017E  0012               	return		;funcret
   413  000180                     __end_of_Timer0_Init:
   414                           	opt stack 0
   415                           intcon	equ	0xFF2
   416                           status	equ	0xFD8
   417                           
   418 ;; *************** function _SetTimer0 *****************
   419 ;; Defined at:
   420 ;;		line 72 in file "_01_USER/My_Timer.c"
   421 ;; Parameters:    Size  Location     Type
   422 ;;  _tmr            2   18[COMRAM] unsigned int 
   423 ;; Auto vars:     Size  Location     Type
   424 ;;		None
   425 ;; Return value:  Size  Location     Type
   426 ;;		None               void
   427 ;; Registers used:
   428 ;;		wreg, status,2, status,0
   429 ;; Tracked objects:
   430 ;;		On entry : 0/0
   431 ;;		On exit  : 0/0
   432 ;;		Unchanged: 0/0
   433 ;; Data sizes:     COMRAM   BANK0   BANK1   BANK2   BANK3   BANK4   BANK5   BANK6   BANK7   BANK8   BANK9  BANK10  BANK1
      +1  BANK12  BANK13  BANK14  BANK15
   434 ;;      Params:         2       0       0       0       0       0       0       0       0       0       0       0       
      +0       0       0       0       0
   435 ;;      Locals:         0       0       0       0       0       0       0       0       0       0       0       0       
      +0       0       0       0       0
   436 ;;      Temps:          2       0       0       0       0       0       0       0       0       0       0       0       
      +0       0       0       0       0
   437 ;;      Totals:         4       0       0       0       0       0       0       0       0       0       0       0       
      +0       0       0       0       0
   438 ;;Total ram usage:        4 bytes
   439 ;; Hardware stack levels used:    1
   440 ;; Hardware stack levels required when called:    2
   441 ;; This function calls:
   442 ;;		Nothing
   443 ;; This function is called by:
   444 ;;		_Timer0_Init
   445 ;; This function uses a non-reentrant model
   446 ;;
   447                           
   448                           	psect	text4
   449  0000D8                     __ptext4:
   450                           	opt stack 0
   451  0000D8                     _SetTimer0:
   452                           	opt stack 27
   453                           
   454                           ;My_Timer.c: 74: if(_tmr > 0xffff) _tmr = 0xffff;
   455                           
   456                           ;incstack = 0
   457  0000D8  D003               	goto	l868
   458  0000DA  6813               	setf	SetTimer0@_tmr,c
   459  0000DC  6814               	setf	SetTimer0@_tmr+1,c
   460  0000DE  D000               	goto	l868
   461  0000E0                     l868:
   462                           
   463                           ;My_Timer.c: 75: _tmr=0xffff-_tmr;
   464  0000E0  C013  F015         	movff	SetTimer0@_tmr,??_SetTimer0
   465  0000E4  C014  F016         	movff	SetTimer0@_tmr+1,??_SetTimer0+1
   466  0000E8  1E15               	comf	??_SetTimer0,f,c
   467  0000EA  1E16               	comf	??_SetTimer0+1,f,c
   468  0000EC  4A15               	infsnz	??_SetTimer0,f,c
   469  0000EE  2A16               	incf	??_SetTimer0+1,f,c
   470  0000F0  0EFF               	movlw	255
   471  0000F2  2415               	addwf	??_SetTimer0,w,c
   472  0000F4  6E13               	movwf	SetTimer0@_tmr,c
   473  0000F6  0EFF               	movlw	255
   474  0000F8  2016               	addwfc	??_SetTimer0+1,w,c
   475  0000FA  6E14               	movwf	SetTimer0@_tmr+1,c
   476                           
   477                           ;My_Timer.c: 76: TMR0H = _tmr/256;
   478  0000FC  5014               	movf	SetTimer0@_tmr+1,w,c
   479  0000FE  6ED7               	movwf	4055,c	;volatile
   480                           
   481                           ;My_Timer.c: 77: TMR0L = _tmr%256;
   482  000100  C013  FFD6         	movff	SetTimer0@_tmr,4054	;volatile
   483  000104  0012               	return		;funcret
   484  000106                     __end_of_SetTimer0:
   485                           	opt stack 0
   486                           intcon	equ	0xFF2
   487                           status	equ	0xFD8
   488                           
   489 ;; *************** function _Key_Init *****************
   490 ;; Defined at:
   491 ;;		line 37 in file "_01_USER/Key.c"
   492 ;; Parameters:    Size  Location     Type
   493 ;;		None
   494 ;; Auto vars:     Size  Location     Type
   495 ;;		None
   496 ;; Return value:  Size  Location     Type
   497 ;;                  2    4[None  ] int 
   498 ;; Registers used:
   499 ;;		wreg, status,2, status,0
   500 ;; Tracked objects:
   501 ;;		On entry : 0/0
   502 ;;		On exit  : 0/0
   503 ;;		Unchanged: 0/0
   504 ;; Data sizes:     COMRAM   BANK0   BANK1   BANK2   BANK3   BANK4   BANK5   BANK6   BANK7   BANK8   BANK9  BANK10  BANK1
      +1  BANK12  BANK13  BANK14  BANK15
   505 ;;      Params:         0       0       0       0       0       0       0       0       0       0       0       0       
      +0       0       0       0       0
   506 ;;      Locals:         0       0       0       0       0       0       0       0       0       0       0       0       
      +0       0       0       0       0
   507 ;;      Temps:          0       0       0       0       0       0       0       0       0       0       0       0       
      +0       0       0       0       0
   508 ;;      Totals:         0       0       0       0       0       0       0       0       0       0       0       0       
      +0       0       0       0       0
   509 ;;Total ram usage:        0 bytes
   510 ;; Hardware stack levels used:    1
   511 ;; Hardware stack levels required when called:    2
   512 ;; This function calls:
   513 ;;		Nothing
   514 ;; This function is called by:
   515 ;;		_main
   516 ;; This function uses a non-reentrant model
   517 ;;
   518                           
   519                           	psect	text5
   520  0001B0                     __ptext5:
   521                           	opt stack 0
   522  0001B0                     _Key_Init:
   523                           	opt stack 28
   524                           
   525                           ;Key.c: 39: TRISC |= 0x3c;
   526                           
   527                           ;incstack = 0
   528  0001B0  0E3C               	movlw	60
   529  0001B2  1294               	iorwf	3988,f,c	;volatile
   530  0001B4  0012               	return		;funcret
   531  0001B6                     __end_of_Key_Init:
   532                           	opt stack 0
   533                           intcon	equ	0xFF2
   534                           status	equ	0xFD8
   535                           
   536 ;; *************** function _GPIO_Config *****************
   537 ;; Defined at:
   538 ;;		line 35 in file "_01_USER/GPIO.c"
   539 ;; Parameters:    Size  Location     Type
   540 ;;		None
   541 ;; Auto vars:     Size  Location     Type
   542 ;;		None
   543 ;; Return value:  Size  Location     Type
   544 ;;		None               void
   545 ;; Registers used:
   546 ;;		wreg, status,2, status,0
   547 ;; Tracked objects:
   548 ;;		On entry : 0/0
   549 ;;		On exit  : 0/0
   550 ;;		Unchanged: 0/0
   551 ;; Data sizes:     COMRAM   BANK0   BANK1   BANK2   BANK3   BANK4   BANK5   BANK6   BANK7   BANK8   BANK9  BANK10  BANK1
      +1  BANK12  BANK13  BANK14  BANK15
   552 ;;      Params:         0       0       0       0       0       0       0       0       0       0       0       0       
      +0       0       0       0       0
   553 ;;      Locals:         0       0       0       0       0       0       0       0       0       0       0       0       
      +0       0       0       0       0
   554 ;;      Temps:          0       0       0       0       0       0       0       0       0       0       0       0       
      +0       0       0       0       0
   555 ;;      Totals:         0       0       0       0       0       0       0       0       0       0       0       0       
      +0       0       0       0       0
   556 ;;Total ram usage:        0 bytes
   557 ;; Hardware stack levels used:    1
   558 ;; Hardware stack levels required when called:    2
   559 ;; This function calls:
   560 ;;		Nothing
   561 ;; This function is called by:
   562 ;;		_main
   563 ;; This function uses a non-reentrant model
   564 ;;
   565                           
   566                           	psect	text6
   567  0001A6                     __ptext6:
   568                           	opt stack 0
   569  0001A6                     _GPIO_Config:
   570                           	opt stack 28
   571                           
   572                           ;GPIO.c: 38: TRISE &= 0xc3;
   573                           
   574                           ;incstack = 0
   575  0001A6  0EC3               	movlw	195
   576  0001A8  1696               	andwf	3990,f,c	;volatile
   577                           
   578                           ;GPIO.c: 39: TRISF = 0x01;
   579  0001AA  0E01               	movlw	1
   580  0001AC  6E97               	movwf	3991,c	;volatile
   581  0001AE  0012               	return		;funcret
   582  0001B0                     __end_of_GPIO_Config:
   583                           	opt stack 0
   584                           intcon	equ	0xFF2
   585                           status	equ	0xFD8
   586                           
   587 ;; *************** function _Sys_Cyc *****************
   588 ;; Defined at:
   589 ;;		line 92 in file "_01_USER/My_Timer.c"
   590 ;; Parameters:    Size  Location     Type
   591 ;;		None
   592 ;; Auto vars:     Size  Location     Type
   593 ;;		None
   594 ;; Return value:  Size  Location     Type
   595 ;;		None               void
   596 ;; Registers used:
   597 ;;		wreg, status,2, status,0, cstack
   598 ;; Tracked objects:
   599 ;;		On entry : 0/0
   600 ;;		On exit  : 0/0
   601 ;;		Unchanged: 0/0
   602 ;; Data sizes:     COMRAM   BANK0   BANK1   BANK2   BANK3   BANK4   BANK5   BANK6   BANK7   BANK8   BANK9  BANK10  BANK1
      +1  BANK12  BANK13  BANK14  BANK15
   603 ;;      Params:         0       0       0       0       0       0       0       0       0       0       0       0       
      +0       0       0       0       0
   604 ;;      Locals:         0       0       0       0       0       0       0       0       0       0       0       0       
      +0       0       0       0       0
   605 ;;      Temps:         14       0       0       0       0       0       0       0       0       0       0       0       
      +0       0       0       0       0
   606 ;;      Totals:        14       0       0       0       0       0       0       0       0       0       0       0       
      +0       0       0       0       0
   607 ;;Total ram usage:       14 bytes
   608 ;; Hardware stack levels used:    1
   609 ;; Hardware stack levels required when called:    1
   610 ;; This function calls:
   611 ;;		i2_SetTimer0
   612 ;; This function is called by:
   613 ;;		Interrupt level 2
   614 ;; This function uses a non-reentrant model
   615 ;;
   616                           
   617                           	psect	intcode
   618  000008                     __pintcode:
   619                           	opt stack 0
   620  000008                     _Sys_Cyc:
   621                           	opt stack 27
   622                           
   623                           ;incstack = 0
   624  000008  CFFA F005          	movff	pclath,??_Sys_Cyc
   625  00000C  CFFB F006          	movff	pclatu,??_Sys_Cyc+1
   626  000010  CFE9 F007          	movff	fsr0l,??_Sys_Cyc+2
   627  000014  CFEA F008          	movff	fsr0h,??_Sys_Cyc+3
   628  000018  CFE1 F009          	movff	fsr1l,??_Sys_Cyc+4
   629  00001C  CFE2 F00A          	movff	fsr1h,??_Sys_Cyc+5
   630  000020  CFD9 F00B          	movff	fsr2l,??_Sys_Cyc+6
   631  000024  CFDA F00C          	movff	fsr2h,??_Sys_Cyc+7
   632  000028  CFF3 F00D          	movff	prodl,??_Sys_Cyc+8
   633  00002C  CFF4 F00E          	movff	prodh,??_Sys_Cyc+9
   634  000030  CFF6 F00F          	movff	tblptrl,??_Sys_Cyc+10
   635  000034  CFF7 F010          	movff	tblptrh,??_Sys_Cyc+11
   636  000038  CFF8 F011          	movff	tblptru,??_Sys_Cyc+12
   637  00003C  CFF5 F012          	movff	tablat,??_Sys_Cyc+13
   638                           
   639                           ;My_Timer.c: 94: if(TMR0IF && TMR0IE)
   640  000040  B4F2               	btfsc	intcon,2,c	;volatile
   641  000042  AAF2               	btfss	intcon,5,c	;volatile
   642  000044  D00E               	goto	i2l114
   643                           
   644                           ;My_Timer.c: 95: {
   645                           ;My_Timer.c: 96: RF7 = RE2;
   646  000046  A484               	btfss	3972,2,c	;volatile
   647  000048  D002               	goto	i2u26_40
   648  00004A  8E85               	bsf	3973,7,c	;volatile
   649  00004C  D001               	goto	i2u27_45
   650  00004E                     i2u26_40:
   651  00004E  9E85               	bcf	3973,7,c	;volatile
   652  000050                     i2u27_45:
   653                           
   654                           ;My_Timer.c: 97: RE2 = ~RE2;
   655  000050  7484               	btg	3972,2,c	;volatile
   656                           
   657                           ;My_Timer.c: 98: SetTimer0(1000);
   658  000052  0E03               	movlw	3
   659  000054  6E02               	movwf	i2SetTimer0@_tmr+1,c
   660  000056  0EE8               	movlw	232
   661  000058  6E01               	movwf	i2SetTimer0@_tmr,c
   662  00005A  EC83  F000         	call	i2_SetTimer0	;wreg free
   663                           
   664                           ;My_Timer.c: 99: TMR0IF = 0;
   665  00005E  94F2               	bcf	intcon,2,c	;volatile
   666  000060  D000               	goto	i2l114
   667  000062                     i2l114:
   668  000062  C012  FFF5         	movff	??_Sys_Cyc+13,tablat
   669  000066  C011  FFF8         	movff	??_Sys_Cyc+12,tblptru
   670  00006A  C010  FFF7         	movff	??_Sys_Cyc+11,tblptrh
   671  00006E  C00F  FFF6         	movff	??_Sys_Cyc+10,tblptrl
   672  000072  C00E  FFF4         	movff	??_Sys_Cyc+9,prodh
   673  000076  C00D  FFF3         	movff	??_Sys_Cyc+8,prodl
   674  00007A  C00C  FFDA         	movff	??_Sys_Cyc+7,fsr2h
   675  00007E  C00B  FFD9         	movff	??_Sys_Cyc+6,fsr2l
   676  000082  C00A  FFE2         	movff	??_Sys_Cyc+5,fsr1h
   677  000086  C009  FFE1         	movff	??_Sys_Cyc+4,fsr1l
   678  00008A  C008  FFEA         	movff	??_Sys_Cyc+3,fsr0h
   679  00008E  C007  FFE9         	movff	??_Sys_Cyc+2,fsr0l
   680  000092  C006  FFFB         	movff	??_Sys_Cyc+1,pclatu
   681  000096  C005  FFFA         	movff	??_Sys_Cyc,pclath
   682  00009A  0011               	retfie		f
   683  00009C                     __end_of_Sys_Cyc:
   684                           	opt stack 0
   685                           pclatu	equ	0xFFB
   686                           pclath	equ	0xFFA
   687                           tblptru	equ	0xFF8
   688                           tblptrh	equ	0xFF7
   689                           tblptrl	equ	0xFF6
   690                           tablat	equ	0xFF5
   691                           prodh	equ	0xFF4
   692                           prodl	equ	0xFF3
   693                           intcon	equ	0xFF2
   694                           fsr0h	equ	0xFEA
   695                           fsr0l	equ	0xFE9
   696                           fsr1h	equ	0xFE2
   697                           fsr1l	equ	0xFE1
   698                           fsr2h	equ	0xFDA
   699                           fsr2l	equ	0xFD9
   700                           status	equ	0xFD8
   701                           
   702 ;; *************** function i2_SetTimer0 *****************
   703 ;; Defined at:
   704 ;;		line 72 in file "_01_USER/My_Timer.c"
   705 ;; Parameters:    Size  Location     Type
   706 ;;  _tmr            2    0[COMRAM] unsigned int 
   707 ;; Auto vars:     Size  Location     Type
   708 ;;		None
   709 ;; Return value:  Size  Location     Type
   710 ;;		None               void
   711 ;; Registers used:
   712 ;;		wreg, status,2, status,0
   713 ;; Tracked objects:
   714 ;;		On entry : 0/0
   715 ;;		On exit  : 0/0
   716 ;;		Unchanged: 0/0
   717 ;; Data sizes:     COMRAM   BANK0   BANK1   BANK2   BANK3   BANK4   BANK5   BANK6   BANK7   BANK8   BANK9  BANK10  BANK1
      +1  BANK12  BANK13  BANK14  BANK15
   718 ;;      Params:         2       0       0       0       0       0       0       0       0       0       0       0       
      +0       0       0       0       0
   719 ;;      Locals:         0       0       0       0       0       0       0       0       0       0       0       0       
      +0       0       0       0       0
   720 ;;      Temps:          2       0       0       0       0       0       0       0       0       0       0       0       
      +0       0       0       0       0
   721 ;;      Totals:         4       0       0       0       0       0       0       0       0       0       0       0       
      +0       0       0       0       0
   722 ;;Total ram usage:        4 bytes
   723 ;; Hardware stack levels used:    1
   724 ;; This function calls:
   725 ;;		Nothing
   726 ;; This function is called by:
   727 ;;		_Sys_Cyc
   728 ;; This function uses a non-reentrant model
   729 ;;
   730                           
   731                           	psect	text8
   732  000106                     __ptext8:
   733                           	opt stack 0
   734  000106                     i2_SetTimer0:
   735                           	opt stack 27
   736                           
   737                           ;My_Timer.c: 74: if(_tmr > 0xffff) _tmr = 0xffff;
   738                           
   739                           ;incstack = 0
   740  000106  D003               	goto	i2l896
   741  000108  6801               	setf	i2SetTimer0@_tmr,c
   742  00010A  6802               	setf	i2SetTimer0@_tmr+1,c
   743  00010C  D000               	goto	i2l896
   744  00010E                     i2l896:
   745                           
   746                           ;My_Timer.c: 75: _tmr=0xffff-_tmr;
   747  00010E  C001  F003         	movff	i2SetTimer0@_tmr,??i2_SetTimer0
   748  000112  C002  F004         	movff	i2SetTimer0@_tmr+1,??i2_SetTimer0+1
   749  000116  1E03               	comf	??i2_SetTimer0,f,c
   750  000118  1E04               	comf	??i2_SetTimer0+1,f,c
   751  00011A  4A03               	infsnz	??i2_SetTimer0,f,c
   752  00011C  2A04               	incf	??i2_SetTimer0+1,f,c
   753  00011E  0EFF               	movlw	255
   754  000120  2403               	addwf	??i2_SetTimer0,w,c
   755  000122  6E01               	movwf	i2SetTimer0@_tmr,c
   756  000124  0EFF               	movlw	255
   757  000126  2004               	addwfc	??i2_SetTimer0+1,w,c
   758  000128  6E02               	movwf	i2SetTimer0@_tmr+1,c
   759                           
   760                           ;My_Timer.c: 76: TMR0H = _tmr/256;
   761  00012A  5002               	movf	i2SetTimer0@_tmr+1,w,c
   762  00012C  6ED7               	movwf	4055,c	;volatile
   763                           
   764                           ;My_Timer.c: 77: TMR0L = _tmr%256;
   765  00012E  C001  FFD6         	movff	i2SetTimer0@_tmr,4054	;volatile
   766  000132  0012               	return		;funcret
   767  000134                     __end_ofi2_SetTimer0:
   768                           	opt stack 0
   769  0000                     pclatu	equ	0xFFB
   770                           pclath	equ	0xFFA
   771                           tblptru	equ	0xFF8
   772                           tblptrh	equ	0xFF7
   773                           tblptrl	equ	0xFF6
   774                           tablat	equ	0xFF5
   775                           prodh	equ	0xFF4
   776                           prodl	equ	0xFF3
   777                           intcon	equ	0xFF2
   778                           fsr0h	equ	0xFEA
   779                           fsr0l	equ	0xFE9
   780                           fsr1h	equ	0xFE2
   781                           fsr1l	equ	0xFE1
   782                           fsr2h	equ	0xFDA
   783                           fsr2l	equ	0xFD9
   784                           status	equ	0xFD8
   785                           pclatu	equ	0xFFB
   786                           pclath	equ	0xFFA
   787                           tblptru	equ	0xFF8
   788                           tblptrh	equ	0xFF7
   789                           tblptrl	equ	0xFF6
   790                           tablat	equ	0xFF5
   791                           prodh	equ	0xFF4
   792                           prodl	equ	0xFF3
   793                           intcon	equ	0xFF2
   794                           fsr0h	equ	0xFEA
   795                           fsr0l	equ	0xFE9
   796                           fsr1h	equ	0xFE2
   797                           fsr1l	equ	0xFE1
   798                           fsr2h	equ	0xFDA
   799                           fsr2l	equ	0xFD9
   800                           status	equ	0xFD8
   801                           
   802                           	psect	rparam
   803  0000                     pclatu	equ	0xFFB
   804                           pclath	equ	0xFFA
   805                           tblptru	equ	0xFF8
   806                           tblptrh	equ	0xFF7
   807                           tblptrl	equ	0xFF6
   808                           tablat	equ	0xFF5
   809                           prodh	equ	0xFF4
   810                           prodl	equ	0xFF3
   811                           intcon	equ	0xFF2
   812                           fsr0h	equ	0xFEA
   813                           fsr0l	equ	0xFE9
   814                           fsr1h	equ	0xFE2
   815                           fsr1l	equ	0xFE1
   816                           fsr2h	equ	0xFDA
   817                           fsr2l	equ	0xFD9
   818                           status	equ	0xFD8


Data Sizes:
    Strings     0
    Constant    0
    Data        0
    BSS         3
    Persistent  0
    Stack       0

Auto Spaces:
    Space          Size  Autos    Used
    COMRAM           95     23      26
    BANK0           160      0       0
    BANK1           256      0       0
    BANK2           256      0       0
    BANK3           256      0       0
    BANK4           256      0       0
    BANK5           256      0       0
    BANK6           256      0       0
    BANK7           256      0       0
    BANK8           256      0       0
    BANK9           256      0       0
    BANK10          256      0       0
    BANK11          256      0       0
    BANK12          256      0       0
    BANK13          256      0       0
    BANK14          256      0       0
    BANK15           22      0       0

Pointer List with Targets:

    None.

Critical Paths under _main in COMRAM

    _main->_delay_ms
    _delay_ms->_delay1ms
    _Timer0_Init->_SetTimer0

Critical Paths under _Sys_Cyc in COMRAM

    _Sys_Cyc->i2_SetTimer0

Critical Paths under _main in BANK0

    None.

Critical Paths under _Sys_Cyc in BANK0

    None.

Critical Paths under _main in BANK1

    None.

Critical Paths under _Sys_Cyc in BANK1

    None.

Critical Paths under _main in BANK2

    None.

Critical Paths under _Sys_Cyc in BANK2

    None.

Critical Paths under _main in BANK3

    None.

Critical Paths under _Sys_Cyc in BANK3

    None.

Critical Paths under _main in BANK4

    None.

Critical Paths under _Sys_Cyc in BANK4

    None.

Critical Paths under _main in BANK5

    None.

Critical Paths under _Sys_Cyc in BANK5

    None.

Critical Paths under _main in BANK6

    None.

Critical Paths under _Sys_Cyc in BANK6

    None.

Critical Paths under _main in BANK7

    None.

Critical Paths under _Sys_Cyc in BANK7

    None.

Critical Paths under _main in BANK8

    None.

Critical Paths under _Sys_Cyc in BANK8

    None.

Critical Paths under _main in BANK9

    None.

Critical Paths under _Sys_Cyc in BANK9

    None.

Critical Paths under _main in BANK10

    None.

Critical Paths under _Sys_Cyc in BANK10

    None.

Critical Paths under _main in BANK11

    None.

Critical Paths under _Sys_Cyc in BANK11

    None.

Critical Paths under _main in BANK12

    None.

Critical Paths under _Sys_Cyc in BANK12

    None.

Critical Paths under _main in BANK13

    None.

Critical Paths under _Sys_Cyc in BANK13

    None.

Critical Paths under _main in BANK14

    None.

Critical Paths under _Sys_Cyc in BANK14

    None.

Critical Paths under _main in BANK15

    None.

Critical Paths under _Sys_Cyc in BANK15

    None.

Call Graph Tables:

 ---------------------------------------------------------------------------------
 (Depth) Function   	        Calls       Base Space   Used Autos Params    Refs
 ---------------------------------------------------------------------------------
 (0) _main                                                 0     0      0     283
                        _GPIO_Config
                           _Key_Init
                        _Timer0_Init
                           _delay_ms
 ---------------------------------------------------------------------------------
 (1) _delay_ms                                             2     0      2     155
                                             21 COMRAM     2     0      2
                           _delay1ms
 ---------------------------------------------------------------------------------
 (2) _delay1ms                                             3     3      0      90
                                             18 COMRAM     3     3      0
 ---------------------------------------------------------------------------------
 (1) _Timer0_Init                                          0     0      0     128
                          _SetTimer0
 ---------------------------------------------------------------------------------
 (2) _SetTimer0                                            4     2      2     128
                                             18 COMRAM     4     2      2
 ---------------------------------------------------------------------------------
 (1) _Key_Init                                             0     0      0       0
 ---------------------------------------------------------------------------------
 (1) _GPIO_Config                                          0     0      0       0
 ---------------------------------------------------------------------------------
 Estimated maximum stack depth 2
 ---------------------------------------------------------------------------------
 (Depth) Function   	        Calls       Base Space   Used Autos Params    Refs
 ---------------------------------------------------------------------------------
 (3) _Sys_Cyc                                             14    14      0      94
                                              4 COMRAM    14    14      0
                        i2_SetTimer0
 ---------------------------------------------------------------------------------
 (4) i2_SetTimer0                                          4     2      2      94
                                              0 COMRAM     4     2      2
 ---------------------------------------------------------------------------------
 Estimated maximum stack depth 4
 ---------------------------------------------------------------------------------

 Call Graph Graphs:

 _main (ROOT)
   _GPIO_Config
   _Key_Init
   _Timer0_Init
     _SetTimer0
   _delay_ms
     _delay1ms

 _Sys_Cyc (ROOT)
   i2_SetTimer0

 Address spaces:
Name               Size   Autos  Total    Cost      Usage
BIGRAM             F15      0       0      37        0.0%
EEDATA             400      0       0       0        0.0%
BITBANK14          100      0       0      33        0.0%
BANK14             100      0       0      34        0.0%
BITBANK13          100      0       0      31        0.0%
BANK13             100      0       0      32        0.0%
BITBANK12          100      0       0      29        0.0%
BANK12             100      0       0      30        0.0%
BITBANK11          100      0       0      27        0.0%
BANK11             100      0       0      28        0.0%
BITBANK10          100      0       0      25        0.0%
BANK10             100      0       0      26        0.0%
BITBANK9           100      0       0      23        0.0%
BANK9              100      0       0      24        0.0%
BITBANK8           100      0       0      21        0.0%
BANK8              100      0       0      22        0.0%
BITBANK7           100      0       0      19        0.0%
BANK7              100      0       0      20        0.0%
BITBANK6           100      0       0      17        0.0%
BANK6              100      0       0      18        0.0%
BITBANK5           100      0       0      15        0.0%
BANK5              100      0       0      16        0.0%
BITBANK4           100      0       0      13        0.0%
BANK4              100      0       0      14        0.0%
BITBANK3           100      0       0      10        0.0%
BANK3              100      0       0      11        0.0%
BITBANK2           100      0       0       8        0.0%
BANK2              100      0       0       9        0.0%
BITBANK1           100      0       0       6        0.0%
BANK1              100      0       0       7        0.0%
BITBANK0            A0      0       0       4        0.0%
BANK0               A0      0       0       5        0.0%
BITCOMRAM           5F      0       0       0        0.0%
COMRAM              5F     17      1A       1       27.4%
BITBANK15           16      0       0      35        0.0%
BANK15              16      0       0      36        0.0%
BITSFR_1             0      0       0      40        0.0%
SFR_1                0      0       0      40        0.0%
BITSFR               0      0       0      40        0.0%
SFR                  0      0       0      40        0.0%
STACK                0      0       0       2        0.0%
NULL                 0      0       0       0        0.0%
ABS                  0      0      1A      12        0.0%
DATA                 0      0      1A       3        0.0%
CODE                 0      0       0       0        0.0%


Microchip Technology PIC18 Macro Assembler V1.34 build -361300703 
Symbol Table                                                                                   Sat Dec 05 16:39:35 2015

                     l19 0148              __CFG_BORV$3 000000             __CFG_CP0$OFF 000000  
           __CFG_CP1$OFF 000000             __CFG_CP2$OFF 000000             __CFG_CP3$OFF 000000  
           __CFG_CP4$OFF 000000             __CFG_CP5$OFF 000000             __CFG_CP6$OFF 000000  
           __CFG_CP7$OFF 000000                      l730 00BC                      l734 00CA  
                    l742 00D2                      l726 00AE                      l738 00CE  
                    l890 0188                      l868 00E0                      l888 0182  
                    _GIE 007F97             __CFG_CPB$OFF 000000                      _RE2 007C22  
                    _RE3 007C23                      _RE4 007C24                      _RE5 007C25  
                    _RF7 007C2F             __CFG_CPD$OFF 000000                      _PSA 007EAB  
           ?_GPIO_Config 0001                     _T0CS 007EAD                     _T0SE 007EAC  
                   _IPEN 007E87                     _main 0134                     fsr0h 000FEA  
                   fsr1h 000FE2                     fsr0l 000FE9                     fsr2h 000FDA  
                   fsr1l 000FE1                     fsr2l 000FD9                     pclat 000FFA  
                   prodh 000FF4                     prodl 000FF3                     start 009C  
          __CFG_IESO$OFF 000000            __CFG_FOSC$HS2 000000            __CFG_MCLRE$ON 000000  
           ___param_bank 000010            __CFG_RETEN$ON 000000                    ?_main 0001  
        __end_of_Sys_Cyc 009C                    _T0PS0 007EA8                    _T0PS1 007EA9  
                  _T0PS2 007EAA                    i2l114 0062                    i2l896 010E  
                  _TMR0H 000FD7                    _TMR0L 000FD6                    _TRISC 000F94  
                  _TRISE 000F96                    _TRISF 000F97            __CFG_WRT0$OFF 000000  
          __CFG_WRT1$OFF 000000            __CFG_WRT2$OFF 000000            __CFG_WRT3$OFF 000000  
          __CFG_WRT4$OFF 000000           __CFG_EBRT0$OFF 000000            __CFG_WRT5$OFF 000000  
         __CFG_EBRT1$OFF 000000            __CFG_WRT6$OFF 000000           __CFG_EBRT2$OFF 000000  
          __CFG_WRT7$OFF 000000           __CFG_EBRT3$OFF 000000           __CFG_EBRT4$OFF 000000  
         __CFG_FCMEN$OFF 000000           __CFG_EBRT5$OFF 000000           __CFG_EBRT6$OFF 000000  
         __CFG_EBRT7$OFF 000000            __CFG_WRTB$OFF 000000            __CFG_WRTC$OFF 000000  
          __CFG_WRTD$OFF 000000           __CFG_EBRTB$OFF 000000                    tablat 000FF5  
                  status 000FD8          __initialization 019A             __end_of_main 015C  
       __end_of_Key_Init 01B6                   ??_main 0018            __activetblptr 000003  
                 _T08BIT 007EAE          __CFG_BBSIZ$BB2K 000000            SetTimer0@_tmr 0013  
                 _TMR0IE 007F95                   _TMR0IF 007F92                   _TMR0ON 007EAF  
       __end_of_delay1ms 00D8         __end_of_delay_ms 019A            ??_Timer0_Init 0017  
         __CFG_XINST$OFF 000000           __CFG_STVREN$ON 000000                ??_Sys_Cyc 0005  
     __size_of_SetTimer0 002E                   tblptrh 000FF7                   tblptrl 000FF6  
                 tblptru 000FF8     __size_of_GPIO_Config 000A               __accesstop 0060  
__end_of__initialization 01A0             ?i2_SetTimer0 0001            ___rparam_used 000001  
         __pcstackCOMRAM 0001      __end_of_Timer0_Init 0180        __end_of_SetTimer0 0106  
              ?_Key_Init 0001          __CFG_PLLCFG$OFF 000000                ?_delay1ms 0001  
              ?_delay_ms 0016                  i2u26_40 004E                  i2u27_45 0050  
             ??_Key_Init 0013          __CFG_PWRTEN$OFF 000000                  __Hparam 0000  
            _Timer0_Init 015C                  __Lparam 0000                  _Sys_Cyc 0008  
                __pcinit 019A                  __ramtop 1000                  __ptext0 0134  
                __ptext1 0180                  __ptext2 00A0                  __ptext3 015C  
                __ptext4 00D8                  __ptext5 01B0                  __ptext6 01A6  
                __ptext8 0106               ??_delay1ms 0013        __CFG_MSSPMSK$MSK7 000000  
             ??_delay_ms 0018     end_of_initialization 01A0     __size_ofi2_SetTimer0 002E  
              _PORTEbits 000F84        __CFG_SOSCSEL$HIGH 000000            ??_GPIO_Config 0013  
    start_initialization 019A                _Local_Key 0018        __size_of_Key_Init 0006  
              _SetTimer0 00D8          i2SetTimer0@_tmr 0001              __pbssCOMRAM 0018  
      __size_of_delay1ms 0038        __size_of_delay_ms 001A      __end_of_GPIO_Config 01B0  
             ?_SetTimer0 0013             ?_Timer0_Init 0001        __CFG_CCP2MX$PORTC 000000  
              __pintcode 0008                 ?_Sys_Cyc 0001                delay1ms@a 0013  
              delay1ms@b 0014                delay1ms@c 0015              _GPIO_Config 01A6  
               _Key_Init 01B0            ??i2_SetTimer0 0003              ??_SetTimer0 0015  
               __Hrparam 0000                 __Lrparam 0000       __CFG_BOREN$SBORDIS 000000  
       __size_of_Sys_Cyc 0094                 _delay1ms 00A0                 _delay_ms 0180  
          __size_of_main 0028      __CFG_RTCOSC$SOSCREF 000000     __size_of_Timer0_Init 0024  
    __end_ofi2_SetTimer0 0134      __CFG_INTOSCSEL$HIGH 000000              delay_ms@_ms 0016  
     __CFG_WDTEN$SWDTDIS 000000                 intlevel2 0000       __CFG_WDTPS$1048576 000000  
    __CFG_BORPWR$ZPBORMV 000000              i2_SetTimer0 0106  
