Microchip MPLAB XC8 Compiler V1.34 ()

Linker command line:

--edf=F:\Program Files (x86)\Microchip\xc8\v1.34\dat\en_msgs.txt -cs \
  -h+dist/default/debug\Master_05.debug.sym \
  --cmf=dist/default/debug\Master_05.debug.cmf -z -w9 -Q18F67K22 \
  -oC:\Users\llhlh\AppData\Local\Temp\sngo.6 \
  -Mdist/default/debug/Master_05.debug.map -E1 -ver=XC8 -ACODE=00h-01FFFFh \
  -ACONST=00h-01FFFFh -ASMALLCONST=01000h-010FFhx496 \
  -AMEDIUMCONST=01000h-0FFFFh,011000h-01FFFFh -ACOMRAM=01h-05Fh \
  -AABS1=00h-0F15h -ABIGRAM=01h-0F15h \
  -ARAM=060h-0FFh,0100h-01FFhx14,0F00h-0F15h -ABANK0=060h-0FFh \
  -ABANK1=0100h-01FFh -ABANK2=0200h-02FFh -ABANK3=0300h-03FFh \
  -ABANK4=0400h-04FFh -ABANK5=0500h-05FFh -ABANK6=0600h-06FFh \
  -ABANK7=0700h-07FFh -ABANK8=0800h-08FFh -ABANK9=0900h-09FFh \
  -ABANK10=0A00h-0AFFh -ABANK11=0B00h-0BFFh -ABANK12=0C00h-0CFFh \
  -ABANK13=0D00h-0DFFh -ABANK14=0E00h-0EFFh -ABANK15=0F00h-0F15h \
  -ASFR=0F16h-0F5Fh,0F60h-0FFCh \
  -preset_vec=00h,intcode,intcodelo,powerup,init,end_init -pramtop=01000h \
  -psmallconst=SMALLCONST -pmediumconst=MEDIUMCONST -pconst=CONST \
  -AFARRAM=00h-00h -ACONFIG=0300000h-030000Dh -pconfig=CONFIG \
  -AIDLOC=0200000h-0200007h -pidloc=IDLOC -AEEDATA=0F00000h-0F003FFh \
  -peeprom_data=EEDATA \
  -prdata=COMRAM,nvrram=COMRAM,nvbit=COMRAM,rbss=COMRAM,rbit=COMRAM \
  -pfarbss=FARRAM,fardata=FARRAM,nvFARRAM=FARRAM \
  -pintsave_regs=BIGRAM,bigbss=BIGRAM,bigdata=BIGRAM -pbss=RAM \
  -pidata=CODE,irdata=CODE,ibigdata=CODE,ifardata=CODE \
  C:\Users\llhlh\AppData\Local\Temp\sngo.obj \
  dist/default/debug\Master_05.debug.obj 

Object code version is 3.11

Machine type is 18F67K22

Call graph: (short form)




                Name                               Link     Load   Length Selector   Space Scale
C:\Users\llhlh\AppData\Local\Temp\sngo.obj
                end_init                            18E      18E        4        0       0
                reset_vec                             0        0        2        0       0
dist/default/debug\Master_05.debug.obj
                intcode                               2        2      18C        0       0
                smallconst                         1000     1000       1A      800       0
                text44                             1B08     1B08       36      80D       0
                text43                             1A88     1A88       42      80D       0
                text42                             1A44     1A44       44      80D       0
                text41                             1BA2     1BA2       30      80D       0
                text40                             1744     1744       70      80D       0
                text38                             18D8     18D8       4E      80D       0
                text37                             1D60     1D60       12      80D       0
                text36                             1DDE     1DDE        2      80D       0
                text35                             1D18     1D18       1A      80D       0
                text34                             1CB4     1CB4       24      80D       0
                text33                             1C90     1C90       24      80D       0
                text32                             1ACA     1ACA       3E      80D       0
                text31                             1C22     1C22       26      80D       0
                text30                             1CFA     1CFA       1E      80D       0
                text29                             101A     101A      1A0      80D       0
                text28                             1972     1972       4A      80D       0
                text27                             1BD2     1BD2       2A      80D       0
                text26                             1CD8     1CD8       22      80D       0
                text25                             187C     187C       5C      80D       0
                text24                             1926     1926       4C      80D       0
                text23                             147A     147A      106      80D       0
                text22                             1DB8     1DB8        E      80D       0
                text21                             1DAA     1DAA        E      80D       0
                text20                             1D9C     1D9C        E      80D       0
                text19                             1D8E     1D8E        E      80D       0
                text18                             1D80     1D80        E      80D       0
                text17                             1818     1818       64      80D       0
                text16                             1D4A     1D4A       16      80D       0
                text15                             1648     1648       8C      80D       0
                text14                             16D4     16D4       70      80D       0
                text13                             1324     1324      156      80D       0
                text12                             1580     1580       C8      80D       0
                text11                             1A00     1A00       44      80D       0
                text10                             1BFC     1BFC       26      80D       0
                text9                              11BA     11BA      16A      80D       0
                text8                              1C6C     1C6C       24      80D       0
                text7                              17B4     17B4       64      80D       0
                text6                              1D32     1D32       18      80D       0
                text5                              1D72     1D72        E      80D       0
                text4                              1DD2     1DD2        C      80D       0
                text3                              1DC6     1DC6        C      80D       0
                text2                              1B72     1B72       30      80D       0
                text1                              1C48     1C48       24      80D       0
                text0                              1B3E     1B3E       34      80D       0
                cstackCOMRAM                          1        1       26        1       1
                cstackBANK0                          DA       DA       18       60       1
                bssBANK1                            100      100       29      100       1
                bssBANK0                             60       60       7A       60       1
                dataCOMRAM                           47       47        1        1       1
                bssCOMRAM                            27       27       20        1       1
                cinit                              19BC     19BC       44      80D       0
                idataCOMRAM                        1DE0     1DE0        1      80D       0

TOTAL           Name                               Link     Load   Length     Space
        CLASS   CODE           
                end_init                            18E      18E        4         0
                intcode                               2        2      18C         0
                reset_vec                             0        0        2         0
                text44                             1B08     1B08       36         0
                text43                             1A88     1A88       42         0
                text42                             1A44     1A44       44         0
                text41                             1BA2     1BA2       30         0
                text40                             1744     1744       70         0
                text38                             18D8     18D8       4E         0
                text37                             1D60     1D60       12         0
                text36                             1DDE     1DDE        2         0
                text35                             1D18     1D18       1A         0
                text34                             1CB4     1CB4       24         0
                text33                             1C90     1C90       24         0
                text32                             1ACA     1ACA       3E         0
                text31                             1C22     1C22       26         0
                text30                             1CFA     1CFA       1E         0
                text29                             101A     101A      1A0         0
                text28                             1972     1972       4A         0
                text27                             1BD2     1BD2       2A         0
                text26                             1CD8     1CD8       22         0
                text25                             187C     187C       5C         0
                text24                             1926     1926       4C         0
                text23                             147A     147A      106         0
                text22                             1DB8     1DB8        E         0
                text21                             1DAA     1DAA        E         0
                text20                             1D9C     1D9C        E         0
                text19                             1D8E     1D8E        E         0
                text18                             1D80     1D80        E         0
                text17                             1818     1818       64         0
                text16                             1D4A     1D4A       16         0
                text15                             1648     1648       8C         0
                text14                             16D4     16D4       70         0
                text13                             1324     1324      156         0
                text12                             1580     1580       C8         0
                text11                             1A00     1A00       44         0
                text10                             1BFC     1BFC       26         0
                text9                              11BA     11BA      16A         0
                text8                              1C6C     1C6C       24         0
                text7                              17B4     17B4       64         0
                text6                              1D32     1D32       18         0
                text5                              1D72     1D72        E         0
                text4                              1DD2     1DD2        C         0
                text3                              1DC6     1DC6        C         0
                text2                              1B72     1B72       30         0
                text1                              1C48     1C48       24         0
                text0                              1B3E     1B3E       34         0
                cinit                              19BC     19BC       44         0
                idataCOMRAM                        1DE0     1DE0        1         0

        CLASS   CONST          

        CLASS   SMALLCONST     
                smallconst                         1000     1000       1A         0

        CLASS   MEDIUMCONST    

        CLASS   COMRAM         
                cstackCOMRAM                          1        1       26         1
                dataCOMRAM                           47       47        1         1
                bssCOMRAM                            27       27       20         1

        CLASS   ABS1           

        CLASS   BIGRAM         

        CLASS   RAM            

        CLASS   BANK0          
                cstackBANK0                          DA       DA       18         1
                bssBANK0                             60       60       7A         1

        CLASS   BANK1          
                bssBANK1                            100      100       29         1

        CLASS   BANK2          

        CLASS   BANK3          

        CLASS   BANK4          

        CLASS   BANK5          

        CLASS   BANK6          

        CLASS   BANK7          

        CLASS   BANK8          

        CLASS   BANK9          

        CLASS   BANK10         

        CLASS   BANK11         

        CLASS   BANK12         

        CLASS   BANK13         

        CLASS   BANK14         

        CLASS   BANK15         

        CLASS   SFR            

        CLASS   FARRAM         

        CLASS   CONFIG         

        CLASS   IDLOC          

        CLASS   EEDATA         

        CLASS   STACK          



SEGMENTS        Name                           Load    Length   Top    Selector   Space  Class

                reset_vec                      000000  000192  000192         0       0  CODE    
                cstackCOMRAM                   000001  000047  000048         1       1  COMRAM  
                bssBANK0                       000060  000092  0000F2        60       1  BANK0   
                bssBANK1                       000100  000029  000129       100       1  BANK1   
                smallconst                     001000  00001A  00101A       800       0  SMALLCON
                text29                         00101A  000DC7  001DE1       80D       0  CODE    


UNUSED ADDRESS RANGES

        Name                Unused          Largest block    Delta
        BANK0            00F2-00FF              E
        BANK1            0129-01FF             D7
        BANK10           0A00-0AFF            100
        BANK11           0B00-0BFF            100
        BANK12           0C00-0CFF            100
        BANK13           0D00-0DFF            100
        BANK14           0E00-0EFF            100
        BANK15           0F00-0F15             16
        BANK2            0200-02FF            100
        BANK3            0300-03FF            100
        BANK4            0400-04FF            100
        BANK5            0500-05FF            100
        BANK6            0600-06FF            100
        BANK7            0700-07FF            100
        BANK8            0800-08FF            100
        BANK9            0900-09FF            100
        BIGRAM           0048-005F             18
                         00F2-00FF              E
                         0129-0F15            DED
        CODE             0192-0FFF            E6E
                         1DE1-1FFFF          1E21F
        COMRAM           0048-005F             18
        CONFIG           300000-30000D              E
        CONST            0192-0FFF            E6E
                         1DE1-1FFFF          1E21F
        EEDATA           F00000-F003FF            400
        IDLOC            200000-200007              8
        MEDIUMCONST      1DE1-FFFF           E21F
                         11000-1FFFF           F000
        RAM              00F2-00FF              E
                         0129-0F15            100
        SFR              0F16-0FFC             4A
        SMALLCONST       1DE1-1FFFF            100

                                  Symbol Table

?___lldiv                         cstackCOMRAM 0019
?___llmod                         cstackCOMRAM 0019
?___lwdiv                         cstackCOMRAM 0019
?___lwmod                         cstackCOMRAM 0019
?i2___llmod                       cstackCOMRAM 0001
Cmd_Inquiry_Fun@_Addr             cstackBANK0  00EA
Cmd_Inquiry_Fun@_PreData          cstackBANK0  00EB
Key_ReadFSM@key_num               cstackCOMRAM 001E
Key_ReadFSM@key_num_mate          cstackCOMRAM 001D
Key_ResetFSM@t                    cstackCOMRAM 0019
LED_Control@_LED_num              cstackCOMRAM 0002
LED_Control@_switch               cstackCOMRAM 0001
Open1USART@config                 cstackCOMRAM 001B
Open1USART@spbrg                  cstackCOMRAM 0019
OpenADC@config                    cstackCOMRAM 001D
OpenADC@config2                   cstackCOMRAM 0019
OpenADC@config3                   cstackCOMRAM 001A
Pulse_3Khz@_overturn_3Khz         bssCOMRAM    002B
RS485_AnalysisData@_Addr          cstackCOMRAM 0019
RS485_Inquiry@_NowAddr            dataCOMRAM   0047
RS485_RecogniseMessage@CRC_H      cstackBANK0  00F0
RS485_RecogniseMessage@CRC_L      cstackBANK0  00F1
RS485_RecogniseMessage@DataBuff   cstackBANK0  00E7
RS485_RecogniseMessage@date_lenth cstackBANK0  00E9
RS485_RecogniseMessage@from_dress cstackBANK0  00EF
RS485_SendDate@date_dress         cstackBANK0  00E7
RS485_SendDate@date_lenth         cstackBANK0  00E9
SetTimer0@_tmr                    cstackCOMRAM 0019
Sys_Cyc@_Byte                     bssCOMRAM    002C
Sys_Cyc@_flag                     bssCOMRAM    002D
Sys_Cyc@_overturn_LED             bssCOMRAM    002E
Sys_Cyc@_temp                     cstackCOMRAM 0018
TM1640_Delay@Time                 cstackCOMRAM 0019
TM1640_Delay@i                    cstackCOMRAM 001A
TM1640_Show_integer@Numbers       cstackCOMRAM 0020
TM1640_Writer_Byte@Date           cstackCOMRAM 001B
TM1640_Writer_Byte@mask           cstackCOMRAM 001C
TM1640_Writer_Dates@Addr          cstackCOMRAM 001F
TM1640_Writer_Dates@Date          cstackCOMRAM 001E
VerifyCRC@CRC_Byte                cstackBANK0  00E6
VerifyCRC@CRC_Value               cstackBANK0  00E2
VerifyCRC@DataBuff                cstackBANK0  00DA
VerifyCRC@date_lenth              cstackBANK0  00DC
_ADC6_Init                        text37       1D60
_ADCON0                           (abs)        0FC2
_ADCON0bits                       (abs)        0FC2
_ADCON1                           (abs)        0FC1
_ADCON2                           (abs)        0FC0
_ADRESH                           (abs)        0FC4
_ADRESL                           (abs)        0FC3
_ANSEL4                           (abs)        792C
_ANSEL6                           (abs)        792E
_ANSEL7                           (abs)        792F
_ANSEL8                           (abs)        7920
_Cmd_Inquiry_Fun                  text11       1A00
_GIE                              (abs)        7F97
_GPIO_Config                      text36       1DDE
_INTCONbits                       (abs)        0FF2
_IPEN                             (abs)        7E87
_Init_TM1640                      text31       1C22
_Key_Init                         text30       1CFA
_Key_ReadFSM                      text29       101A
_Key_ResetFSM                     text28       1972
_Key_Scan                         text44       1B08
_Key_ScanFSM                      text43       1A88
_LED_BUS                          bssCOMRAM    002F
_LED_Control                      text42       1A44
_LED_Number                       smallconst   1001
_LED_UI                           smallconst   1011
_ManageMessage                    text8        1C6C
_Manage_Incident                                   
_MenuLock                         text27       1BD2
_MenuUnlock                       text22       1DB8
_Menu_Run                         text17       1818
_Mune1                            text21       1DAA
_Mune2                            text20       1D9C
_Mune3                            text19       1D8E
_Mune4                            text18       1D80
_Open1USART                       text7        17B4
_OpenADC                          text38       18D8
_PIE1bits                         (abs)        0F9D
_PIR1bits                         (abs)        0F9E
_PSA                              (abs)        7EAB
_RA4                              (abs)        7C04
_RA5                              (abs)        7C05
_RB0                              (abs)        7C08
_RB1                              (abs)        7C09
_RC0                              (abs)        7C10
_RC1                              (abs)        7C11
_RC1IF                            (abs)        7CF5
_RCREG1                           (abs)        0FAE
_RCSTA1                           (abs)        0FAB
_RCSTA1bits                       (abs)        0FAB
_RD0                              (abs)        7C18
_RD1                              (abs)        7C19
_RD2                              (abs)        7C1A
_RD3                              (abs)        7C1B
_RD4                              (abs)        7C1C
_RD5                              (abs)        7C1D
_RD6                              (abs)        7C1E
_RD7                              (abs)        7C1F
_RF1                              (abs)        7C29
_RF2                              (abs)        7C2A
_RF3                              (abs)        7C2B
_RS485_AnalysisData               text16       1D4A
_RS485_Init                       text6        1D32
_RS485_Inquiry                    text10       1BFC
_RS485_RecogniseMessage           text9        11BA
_RS485_SendDate                   text12       1580
_ReceiveBuff                      bssBANK0     00AD
_Relay_Init                       text5        1D72
_SCR_Init                         text4        1DD2
_SPBRG1                           (abs)        0FAF
_SPBRGH1                          (abs)        0FD4
_SetTimer0                        text2        1B72
_ShowResult                       text3        1DC6
_Sys_Cyc                          intcode      0002
_T08BIT                           (abs)        7EAE
_T0CS                             (abs)        7EAD
_T0PS0                            (abs)        7EA8
_T0PS1                            (abs)        7EA9
_T0PS2                            (abs)        7EAA
_T0SE                             (abs)        7EAC
_TM1640_Delay                     text35       1D18
_TM1640_Show_integer              text23       147A
_TM1640_Start                     text34       1CB4
_TM1640_Stop                      text33       1C90
_TM1640_Writer_Byte               text32       1ACA
_TM1640_Writer_Dates              text26       1CD8
_TMR0H                            (abs)        0FD7
_TMR0IE                           (abs)        7F95
_TMR0IF                           (abs)        7F92
_TMR0L                            (abs)        0FD6
_TMR0ON                           (abs)        7EAF
_TRISA4                           (abs)        7C94
_TRISA5                           (abs)        7C95
_TRISB0                           (abs)        7C98
_TRISB1                           (abs)        7C99
_TRISB2                           (abs)        7C9A
_TRISC0                           (abs)        7CA0
_TRISC1                           (abs)        7CA1
_TRISC6                           (abs)        7CA6
_TRISC7                           (abs)        7CA7
_TRISD0                           (abs)        7CA8
_TRISD1                           (abs)        7CA9
_TRISD2                           (abs)        7CAA
_TRISD3                           (abs)        7CAB
_TRISD4                           (abs)        7CAC
_TRISD5                           (abs)        7CAD
_TRISD6                           (abs)        7CAE
_TRISD7                           (abs)        7CAF
_TRISF1                           (abs)        7CB9
_TRISF2                           (abs)        7CBA
_TRISF3                           (abs)        7CBB
_TXREG1                           (abs)        0FAD
_TXSTA1                           (abs)        0FAC
_TXSTA1bits                       (abs)        0FAC
_Timer0_Init                      text1        1C48
_VerifyCRC                        text13       1324
__CFG_BBSIZ$BB2K                  (abs)        0000
__CFG_BOREN$SBORDIS               (abs)        0000
__CFG_BORPWR$ZPBORMV              (abs)        0000
__CFG_BORV$3                      (abs)        0000
__CFG_CCP2MX$PORTC                (abs)        0000
__CFG_CP0$OFF                     (abs)        0000
__CFG_CP1$OFF                     (abs)        0000
__CFG_CP2$OFF                     (abs)        0000
__CFG_CP3$OFF                     (abs)        0000
__CFG_CP4$OFF                     (abs)        0000
__CFG_CP5$OFF                     (abs)        0000
__CFG_CP6$OFF                     (abs)        0000
__CFG_CP7$OFF                     (abs)        0000
__CFG_CPB$OFF                     (abs)        0000
__CFG_CPD$OFF                     (abs)        0000
__CFG_EBRT0$OFF                   (abs)        0000
__CFG_EBRT1$OFF                   (abs)        0000
__CFG_EBRT2$OFF                   (abs)        0000
__CFG_EBRT3$OFF                   (abs)        0000
__CFG_EBRT4$OFF                   (abs)        0000
__CFG_EBRT5$OFF                   (abs)        0000
__CFG_EBRT6$OFF                   (abs)        0000
__CFG_EBRT7$OFF                   (abs)        0000
__CFG_EBRTB$OFF                   (abs)        0000
__CFG_FCMEN$OFF                   (abs)        0000
__CFG_FOSC$HS1                    (abs)        0000
__CFG_IESO$OFF                    (abs)        0000
__CFG_INTOSCSEL$HIGH              (abs)        0000
__CFG_MCLRE$ON                    (abs)        0000
__CFG_MSSPMSK$MSK7                (abs)        0000
__CFG_PLLCFG$OFF                  (abs)        0000
__CFG_PWRTEN$OFF                  (abs)        0000
__CFG_RETEN$ON                    (abs)        0000
__CFG_RTCOSC$SOSCREF              (abs)        0000
__CFG_SOSCSEL$DIG                 (abs)        0000
__CFG_STVREN$ON                   (abs)        0000
__CFG_WDTEN$OFF                   (abs)        0000
__CFG_WDTPS$1048576               (abs)        0000
__CFG_WRT0$OFF                    (abs)        0000
__CFG_WRT1$OFF                    (abs)        0000
__CFG_WRT2$OFF                    (abs)        0000
__CFG_WRT3$OFF                    (abs)        0000
__CFG_WRT4$OFF                    (abs)        0000
__CFG_WRT5$OFF                    (abs)        0000
__CFG_WRT6$OFF                    (abs)        0000
__CFG_WRT7$OFF                    (abs)        0000
__CFG_WRTB$OFF                    (abs)        0000
__CFG_WRTC$OFF                    (abs)        0000
__CFG_WRTD$OFF                    (abs)        0000
__CFG_XINST$OFF                   (abs)        0000
__HRAM                            (abs)        0000
__Habs1                           abs1         0000
__Hbank0                          bank0        0000
__Hbank1                          bank1        0000
__Hbank10                         bank10       0000
__Hbank11                         bank11       0000
__Hbank12                         bank12       0000
__Hbank13                         bank13       0000
__Hbank14                         bank14       0000
__Hbank15                         bank15       0000
__Hbank2                          bank2        0000
__Hbank3                          bank3        0000
__Hbank4                          bank4        0000
__Hbank5                          bank5        0000
__Hbank6                          bank6        0000
__Hbank7                          bank7        0000
__Hbank8                          bank8        0000
__Hbank9                          bank9        0000
__Hbigbss                         bigbss       0000
__Hbigdata                        bigdata      0000
__Hbigram                         bigram       0000
__Hbss                            bss          0000
__HbssBANK0                       bssBANK0     0000
__HbssBANK1                       bssBANK1     0000
__HbssCOMRAM                      bssCOMRAM    0000
__Hcinit                          cinit        0000
__Hclrtext                        clrtext      0000
__Hcomram                         comram       0000
__Hconfig                         config       0000
__Hconst                          const        0000
__HcstackBANK0                    cstackBANK0  0000
__HcstackCOMRAM                   cstackCOMRAM 0000
__Hdata                           data         0000
__HdataCOMRAM                     dataCOMRAM   0000
__Heeprom_data                    eeprom_data  0000
__Hend_init                       end_init     0192
__Hfarbss                         farbss       0000
__Hfardata                        fardata      0000
__Hibigdata                       ibigdata     0000
__Hidata                          idata        0000
__HidataCOMRAM                    idataCOMRAM  0000
__Hidloc                          idloc        0000
__Hifardata                       ifardata     0000
__Hinit                           init         018E
__Hintcode                        intcode      018E
__Hintcode_body                   intcode_body 0000
__Hintcodelo                      intcodelo    018E
__Hintentry                       intentry     0000
__Hintret                         intret       0000
__Hintsave_regs                   intsave_regs 0000
__Hirdata                         irdata       0000
__Hmediumconst                    mediumconst  0000
__HnvFARRAM                       nvFARRAM     0000
__Hnvbit                          nvbit        0000
__Hnvrram                         nvrram       0000
__Hparam                          rparam       0000
__Hpowerup                        powerup      018E
__Hram                            ram          0000
__Hramtop                         ramtop       1000
__Hrbit                           rbit         0000
__Hrbss                           rbss         0000
__Hrdata                          rdata        0000
__Hreset_vec                      reset_vec    0002
__Hrparam                         rparam       0000
__Hsfr                            sfr          0000
__Hsmallconst                     smallconst   101A
__Hspace_0                        (abs)        1DE1
__Hspace_1                        (abs)        0129
__Hspace_2                        (abs)        0000
__Hstack                          stack        0000
__Hstruct                         struct       0000
__Htemp                           temp         0000
__Htext                           text         0000
__Htext0                          text0        0000
__Htext1                          text1        0000
__Htext10                         text10       0000
__Htext11                         text11       0000
__Htext12                         text12       0000
__Htext13                         text13       0000
__Htext14                         text14       0000
__Htext15                         text15       0000
__Htext16                         text16       0000
__Htext17                         text17       0000
__Htext18                         text18       0000
__Htext19                         text19       0000
__Htext2                          text2        0000
__Htext20                         text20       0000
__Htext21                         text21       0000
__Htext22                         text22       0000
__Htext23                         text23       0000
__Htext24                         text24       0000
__Htext25                         text25       0000
__Htext26                         text26       0000
__Htext27                         text27       0000
__Htext28                         text28       0000
__Htext29                         text29       0000
__Htext3                          text3        0000
__Htext30                         text30       0000
__Htext31                         text31       0000
__Htext32                         text32       0000
__Htext33                         text33       0000
__Htext34                         text34       0000
__Htext35                         text35       0000
__Htext36                         text36       0000
__Htext37                         text37       0000
__Htext38                         text38       0000
__Htext4                          text4        0000
__Htext40                         text40       0000
__Htext41                         text41       0000
__Htext42                         text42       0000
__Htext43                         text43       0000
__Htext44                         text44       0000
__Htext5                          text5        0000
__Htext6                          text6        0000
__Htext7                          text7        0000
__Htext8                          text8        0000
__Htext9                          text9        0000
__LRAM                            (abs)        0001
__Labs1                           abs1         0000
__Lbank0                          bank0        0000
__Lbank1                          bank1        0000
__Lbank10                         bank10       0000
__Lbank11                         bank11       0000
__Lbank12                         bank12       0000
__Lbank13                         bank13       0000
__Lbank14                         bank14       0000
__Lbank15                         bank15       0000
__Lbank2                          bank2        0000
__Lbank3                          bank3        0000
__Lbank4                          bank4        0000
__Lbank5                          bank5        0000
__Lbank6                          bank6        0000
__Lbank7                          bank7        0000
__Lbank8                          bank8        0000
__Lbank9                          bank9        0000
__Lbigbss                         bigbss       0000
__Lbigdata                        bigdata      0000
__Lbigram                         bigram       0000
__Lbss                            bss          0000
__LbssBANK0                       bssBANK0     0000
__LbssBANK1                       bssBANK1     0000
__LbssCOMRAM                      bssCOMRAM    0000
__Lcinit                          cinit        0000
__Lclrtext                        clrtext      0000
__Lcomram                         comram       0000
__Lconfig                         config       0000
__Lconst                          const        0000
__LcstackBANK0                    cstackBANK0  0000
__LcstackCOMRAM                   cstackCOMRAM 0000
__Ldata                           data         0000
__LdataCOMRAM                     dataCOMRAM   0000
__Leeprom_data                    eeprom_data  0000
__Lend_init                       end_init     018E
__Lfarbss                         farbss       0000
__Lfardata                        fardata      0000
__Libigdata                       ibigdata     0000
__Lidata                          idata        0000
__LidataCOMRAM                    idataCOMRAM  0000
__Lidloc                          idloc        0000
__Lifardata                       ifardata     0000
__Linit                           init         018E
__Lintcode                        intcode      0002
__Lintcode_body                   intcode_body 0000
__Lintcodelo                      intcodelo    018E
__Lintentry                       intentry     0000
__Lintret                         intret       0000
__Lintsave_regs                   intsave_regs 0000
__Lirdata                         irdata       0000
__Lmediumconst                    mediumconst  0000
__LnvFARRAM                       nvFARRAM     0000
__Lnvbit                          nvbit        0000
__Lnvrram                         nvrram       0000
__Lparam                          rparam       0000
__Lpowerup                        powerup      018E
__Lram                            ram          0000
__Lramtop                         ramtop       1000
__Lrbit                           rbit         0000
__Lrbss                           rbss         0000
__Lrdata                          rdata        0000
__Lreset_vec                      reset_vec    0000
__Lrparam                         rparam       0000
__Lsfr                            sfr          0000
__Lsmallconst                     smallconst   1000
__Lspace_0                        (abs)        0000
__Lspace_1                        (abs)        0000
__Lspace_2                        (abs)        0000
__Lstack                          stack        0000
__Lstruct                         struct       0000
__Ltemp                           temp         0000
__Ltext                           text         0000
__Ltext0                          text0        0000
__Ltext1                          text1        0000
__Ltext10                         text10       0000
__Ltext11                         text11       0000
__Ltext12                         text12       0000
__Ltext13                         text13       0000
__Ltext14                         text14       0000
__Ltext15                         text15       0000
__Ltext16                         text16       0000
__Ltext17                         text17       0000
__Ltext18                         text18       0000
__Ltext19                         text19       0000
__Ltext2                          text2        0000
__Ltext20                         text20       0000
__Ltext21                         text21       0000
__Ltext22                         text22       0000
__Ltext23                         text23       0000
__Ltext24                         text24       0000
__Ltext25                         text25       0000
__Ltext26                         text26       0000
__Ltext27                         text27       0000
__Ltext28                         text28       0000
__Ltext29                         text29       0000
__Ltext3                          text3        0000
__Ltext30                         text30       0000
__Ltext31                         text31       0000
__Ltext32                         text32       0000
__Ltext33                         text33       0000
__Ltext34                         text34       0000
__Ltext35                         text35       0000
__Ltext36                         text36       0000
__Ltext37                         text37       0000
__Ltext38                         text38       0000
__Ltext4                          text4        0000
__Ltext40                         text40       0000
__Ltext41                         text41       0000
__Ltext42                         text42       0000
__Ltext43                         text43       0000
__Ltext44                         text44       0000
__Ltext5                          text5        0000
__Ltext6                          text6        0000
__Ltext7                          text7        0000
__Ltext8                          text8        0000
__Ltext9                          text9        0000
__S0                              (abs)        1DE1
__S1                              (abs)        0129
___inthi_sp                       stack        0000
___intlo_sp                       stack        0000
___lldiv                          text15       1648
___lldiv@counter                  cstackCOMRAM 0025
___lldiv@dividend                 cstackCOMRAM 0019
___lldiv@divisor                  cstackCOMRAM 001D
___lldiv@quotient                 cstackCOMRAM 0021
___llmod                          text14       16D4
___llmod@counter                  cstackCOMRAM 0021
___llmod@dividend                 cstackCOMRAM 0019
___llmod@divisor                  cstackCOMRAM 001D
___lwdiv                          text25       187C
___lwdiv@counter                  cstackCOMRAM 001F
___lwdiv@dividend                 cstackCOMRAM 0019
___lwdiv@divisor                  cstackCOMRAM 001B
___lwdiv@quotient                 cstackCOMRAM 001D
___lwmod                          text24       1926
___lwmod@counter                  cstackCOMRAM 001D
___lwmod@dividend                 cstackCOMRAM 0019
___lwmod@divisor                  cstackCOMRAM 001B
___param_bank                     (abs)        0010
___rparam_used                    (abs)        0001
___sp                             stack        0000
__accesstop                       (abs)        0060
__activetblptr                    (abs)        0001
__end_of_ADC6_Init                text37       1D72
__end_of_Cmd_Inquiry_Fun          text11       1A44
__end_of_GPIO_Config              text36       1DE0
__end_of_Init_TM1640              text31       1C48
__end_of_Key_Init                 text30       1D18
__end_of_Key_ReadFSM              text29       11BA
__end_of_Key_ResetFSM             text28       19BC
__end_of_Key_Scan                 text44       1B3E
__end_of_Key_ScanFSM              text43       1ACA
__end_of_LED_Control              text42       1A88
__end_of_LED_Number               smallconst   1011
__end_of_LED_UI                   smallconst   1018
__end_of_ManageMessage            text8        1C90
__end_of_MenuLock                 text27       1BFC
__end_of_MenuUnlock               text22       1DC6
__end_of_Menu_Run                 text17       187C
__end_of_Mune1                    text21       1DB8
__end_of_Mune2                    text20       1DAA
__end_of_Mune3                    text19       1D9C
__end_of_Mune4                    text18       1D8E
__end_of_Open1USART               text7        1818
__end_of_OpenADC                  text38       1926
__end_of_RS485_AnalysisData       text16       1D60
__end_of_RS485_Init               text6        1D4A
__end_of_RS485_Inquiry            text10       1C22
__end_of_RS485_RecogniseMessage   text9        1324
__end_of_RS485_SendDate           text12       1648
__end_of_Relay_Init               text5        1D80
__end_of_SCR_Init                 text4        1DDE
__end_of_SetTimer0                text2        1BA2
__end_of_ShowResult               text3        1DD2
__end_of_Sys_Cyc                  intcode      018E
__end_of_TM1640_Delay             text35       1D32
__end_of_TM1640_Show_integer      text23       1580
__end_of_TM1640_Start             text34       1CD8
__end_of_TM1640_Stop              text33       1CB4
__end_of_TM1640_Writer_Byte       text32       1B08
__end_of_TM1640_Writer_Dates      text26       1CFA
__end_of_Timer0_Init              text1        1C6C
__end_of_VerifyCRC                text13       147A
__end_of___lldiv                  text15       16D4
__end_of___llmod                  text14       1744
__end_of___lwdiv                  text25       18D8
__end_of___lwmod                  text24       1972
__end_of__initialization          cinit        19F2
__end_of_main                     text0        1B72
__end_ofi2_SetTimer0              text41       1BD2
__end_ofi2___llmod                text40       17B4
__initialization                  cinit        19BC
__mediumconst                     mediumconst  0000
__pbssBANK0                       bssBANK0     0060
__pbssBANK1                       bssBANK1     0100
__pbssCOMRAM                      bssCOMRAM    0027
__pcinit                          cinit        19BC
__pcstackBANK0                    cstackBANK0  00DA
__pcstackCOMRAM                   cstackCOMRAM 0001
__pdataCOMRAM                     dataCOMRAM   0047
__pidataCOMRAM                    idataCOMRAM  1DE0
__pintcode                        intcode      0002
__psmallconst                     smallconst   1000
__ptext0                          text0        1B3E
__ptext1                          text1        1C48
__ptext10                         text10       1BFC
__ptext11                         text11       1A00
__ptext12                         text12       1580
__ptext13                         text13       1324
__ptext14                         text14       16D4
__ptext15                         text15       1648
__ptext16                         text16       1D4A
__ptext17                         text17       1818
__ptext18                         text18       1D80
__ptext19                         text19       1D8E
__ptext2                          text2        1B72
__ptext20                         text20       1D9C
__ptext21                         text21       1DAA
__ptext22                         text22       1DB8
__ptext23                         text23       147A
__ptext24                         text24       1926
__ptext25                         text25       187C
__ptext26                         text26       1CD8
__ptext27                         text27       1BD2
__ptext28                         text28       1972
__ptext29                         text29       101A
__ptext3                          text3        1DC6
__ptext30                         text30       1CFA
__ptext31                         text31       1C22
__ptext32                         text32       1ACA
__ptext33                         text33       1C90
__ptext34                         text34       1CB4
__ptext35                         text35       1D18
__ptext36                         text36       1DDE
__ptext37                         text37       1D60
__ptext38                         text38       18D8
__ptext4                          text4        1DD2
__ptext40                         text40       1744
__ptext41                         text41       1BA2
__ptext42                         text42       1A44
__ptext43                         text43       1A88
__ptext44                         text44       1B08
__ptext5                          text5        1D72
__ptext6                          text6        1D32
__ptext7                          text7        17B4
__ptext8                          text8        1C6C
__ptext9                          text9        11BA
__ramtop                          ramtop       1000
__size_of_ADC6_Init               (abs)        0000
__size_of_Cmd_Inquiry_Fun         (abs)        0000
__size_of_GPIO_Config             (abs)        0000
__size_of_Init_TM1640             (abs)        0000
__size_of_Key_Init                (abs)        0000
__size_of_Key_ReadFSM             (abs)        0000
__size_of_Key_ResetFSM            (abs)        0000
__size_of_Key_Scan                (abs)        0000
__size_of_Key_ScanFSM             (abs)        0000
__size_of_LED_Control             (abs)        0000
__size_of_ManageMessage           (abs)        0000
__size_of_MenuLock                (abs)        0000
__size_of_MenuUnlock              (abs)        0000
__size_of_Menu_Run                (abs)        0000
__size_of_Mune1                   (abs)        0000
__size_of_Mune2                   (abs)        0000
__size_of_Mune3                   (abs)        0000
__size_of_Mune4                   (abs)        0000
__size_of_Open1USART              (abs)        0000
__size_of_OpenADC                 (abs)        0000
__size_of_RS485_AnalysisData      (abs)        0000
__size_of_RS485_Init              (abs)        0000
__size_of_RS485_Inquiry           (abs)        0000
__size_of_RS485_RecogniseMessage  (abs)        0000
__size_of_RS485_SendDate          (abs)        0000
__size_of_Relay_Init              (abs)        0000
__size_of_SCR_Init                (abs)        0000
__size_of_SetTimer0               (abs)        0000
__size_of_ShowResult              (abs)        0000
__size_of_Sys_Cyc                 (abs)        0000
__size_of_TM1640_Delay            (abs)        0000
__size_of_TM1640_Show_integer     (abs)        0000
__size_of_TM1640_Start            (abs)        0000
__size_of_TM1640_Stop             (abs)        0000
__size_of_TM1640_Writer_Byte      (abs)        0000
__size_of_TM1640_Writer_Dates     (abs)        0000
__size_of_Timer0_Init             (abs)        0000
__size_of_VerifyCRC               (abs)        0000
__size_of___lldiv                 (abs)        0000
__size_of___llmod                 (abs)        0000
__size_of___lwdiv                 (abs)        0000
__size_of___lwmod                 (abs)        0000
__size_of_main                    (abs)        0000
__size_ofi2_SetTimer0             (abs)        0000
__size_ofi2___llmod               (abs)        0000
__smallconst                      smallconst   1000
_g_RS485_Byte                     bssCOMRAM    0030
_g_RS485_Receive_Flag             bssCOMRAM    0031
_g_Timer_Cyc                      bssCOMRAM    0027
_ga_RS485_ReceiveBuff             bssBANK0     00CC
_ga_RS485_SendBuff                bssBANK0     00D3
_gf_ADC6_Buff                     bssBANK0     00B4
_gs_ComData                       bssBANK1     0100
_gs_Local_Key_User                bssBANK0     00B7
_gs_Menu                          bssBANK0     0092
_gs_Switch                        bssBANK0     00A4
_gsa_Msg                          bssBANK0     0060
_main                             text0        1B3E
_s_Local_Key_FSM                  bssCOMRAM    0032
end_of_initialization             cinit        19F2
i2SetTimer0@_tmr                  cstackCOMRAM 0001
i2_SetTimer0                      text41       1BA2
i2___llmod                        text40       1744
i2___llmod@counter                cstackCOMRAM 0009
i2___llmod@dividend               cstackCOMRAM 0001
i2___llmod@divisor                cstackCOMRAM 0005
intlevel0                         text         0000
intlevel1                         text         0000
intlevel2                         text         0000
intlevel3                         text         0000
stackhi                           (abs)        0000
stacklo                           (abs)        0000
start                             init         018E
start_initialization              cinit        19BC
